((lp1
(lp2
I0
aI0
aI0
aI0
aI0
aI-53
aS'Raum1'
p3
aa(lp4
I0
aI0
aI0
aI0
aI0
aI-52
ag3
aa(lp5
I0
aI0
aI0
aI0
aI0
aI-53
ag3
aa(lp6
I0
aI0
aI0
aI0
aI0
aI-53
ag3
aa(lp7
I0
aI0
aI0
aI0
aI0
aI-55
ag3
aa(lp8
I0
aI0
aI0
aI0
aI0
aI-54
ag3
aa(lp9
I0
aI0
aI0
aI0
aI0
aI-53
ag3
aa(lp10
I0
aI0
aI0
aI0
aI0
aI-51
ag3
aa(lp11
I0
aI0
aI0
aI0
aI0
aI-51
ag3
aa(lp12
I0
aI0
aI0
aI0
aI0
aI-50
ag3
aa(lp13
I0
aI0
aI0
aI0
aI0
aI-51
ag3
aa(lp14
I0
aI0
aI0
aI0
aI0
aI-50
ag3
aa(lp15
I0
aI0
aI0
aI0
aI0
aI-49
ag3
aa(lp16
I0
aI0
aI0
aI0
aI0
aI-46
ag3
aa(lp17
I0
aI0
aI0
aI0
aI0
aI-48
ag3
aa(lp18
I0
aI0
aI0
aI0
aI0
aI-56
ag3
aa(lp19
I0
aI0
aI0
aI0
aI0
aI-53
ag3
aa(lp20
I0
aI0
aI0
aI0
aI0
aI-47
ag3
aa(lp21
I0
aI0
aI0
aI0
aI0
aI-46
ag3
aa(lp22
I0
aI0
aI0
aI0
aI0
aI-48
ag3
aa(lp23
I0
aI0
aI0
aI0
aI0
aI-46
ag3
aa(lp24
I0
aI0
aI0
aI0
aI0
aI-45
ag3
aa(lp25
I0
aI0
aI0
aI0
aI0
aI-46
ag3
aa(lp26
I0
aI0
aI0
aI0
aI0
aI-46
ag3
aa(lp27
I0
aI0
aI0
aI0
aI0
aI-53
ag3
aa(lp28
I0
aI0
aI0
aI0
aI0
aI-52
ag3
aa(lp29
I0
aI0
aI0
aI0
aI0
aI-53
ag3
aa(lp30
I0
aI0
aI0
aI0
aI0
aI-53
ag3
aa(lp31
I0
aI0
aI0
aI0
aI0
aI-55
ag3
aa(lp32
I0
aI0
aI0
aI0
aI0
aI-54
ag3
aa(lp33
I0
aI0
aI0
aI0
aI0
aI-53
ag3
aa(lp34
I0
aI0
aI0
aI0
aI0
aI-51
ag3
aa(lp35
I0
aI0
aI0
aI0
aI0
aI-51
ag3
aa(lp36
I0
aI0
aI0
aI0
aI0
aI-50
ag3
aa(lp37
I0
aI0
aI0
aI0
aI0
aI-51
ag3
aa(lp38
I0
aI0
aI0
aI0
aI0
aI-50
ag3
aa(lp39
I0
aI0
aI0
aI0
aI0
aI-49
ag3
aa(lp40
I0
aI0
aI0
aI0
aI0
aI-46
ag3
aa(lp41
I0
aI0
aI0
aI0
aI0
aI-48
ag3
aa(lp42
I0
aI0
aI0
aI0
aI0
aI-56
ag3
aa(lp43
I0
aI0
aI0
aI0
aI0
aI-53
ag3
aa(lp44
I0
aI0
aI0
aI0
aI0
aI-47
ag3
aa(lp45
I0
aI0
aI0
aI0
aI0
aI-46
ag3
aa(lp46
I0
aI0
aI0
aI0
aI0
aI-48
ag3
aa(lp47
I0
aI0
aI0
aI0
aI0
aI-46
ag3
aa(lp48
I0
aI0
aI0
aI0
aI0
aI-45
ag3
aa(lp49
I0
aI0
aI0
aI0
aI0
aI-46
ag3
aa(lp50
I0
aI0
aI0
aI0
aI0
aI-46
ag3
aa(lp51
I0
aI0
aI0
aI0
aI0
aI-53
ag3
aa(lp52
I0
aI0
aI0
aI0
aI0
aI-52
ag3
aa(lp53
I0
aI0
aI0
aI0
aI0
aI-53
ag3
aa(lp54
I0
aI0
aI0
aI0
aI0
aI-53
ag3
aa(lp55
I0
aI0
aI0
aI0
aI0
aI-55
ag3
aa(lp56
I0
aI0
aI0
aI0
aI0
aI-54
ag3
aa(lp57
I0
aI0
aI0
aI0
aI0
aI-53
ag3
aa(lp58
I0
aI0
aI0
aI0
aI0
aI-51
ag3
aa(lp59
I0
aI0
aI0
aI0
aI0
aI-51
ag3
aa(lp60
I0
aI0
aI0
aI0
aI0
aI-50
ag3
aa(lp61
I0
aI0
aI0
aI0
aI0
aI-51
ag3
aa(lp62
I0
aI0
aI0
aI0
aI0
aI-50
ag3
aa(lp63
I0
aI0
aI0
aI0
aI0
aI-49
ag3
aa(lp64
I0
aI0
aI0
aI0
aI0
aI-46
ag3
aa(lp65
I0
aI0
aI0
aI0
aI0
aI-48
ag3
aa(lp66
I0
aI0
aI0
aI0
aI0
aI-56
ag3
aa(lp67
I0
aI0
aI0
aI0
aI0
aI-53
ag3
aa(lp68
I0
aI0
aI0
aI0
aI0
aI-47
ag3
aa(lp69
I0
aI0
aI0
aI0
aI0
aI-46
ag3
aa(lp70
I0
aI0
aI0
aI0
aI0
aI-48
ag3
aa(lp71
I0
aI0
aI0
aI0
aI0
aI-46
ag3
aa(lp72
I0
aI0
aI0
aI0
aI0
aI-45
ag3
aa(lp73
I0
aI0
aI0
aI0
aI0
aI-46
ag3
aa(lp74
I0
aI0
aI0
aI0
aI0
aI-46
ag3
aa(lp75
I0
aI0
aI0
aI0
aI0
aI-53
ag3
aa(lp76
I0
aI0
aI0
aI0
aI0
aI-52
ag3
aa(lp77
I0
aI0
aI0
aI0
aI0
aI-53
ag3
aa(lp78
I0
aI0
aI0
aI0
aI0
aI-53
ag3
aa(lp79
I0
aI0
aI0
aI0
aI0
aI-55
ag3
aa(lp80
I0
aI0
aI0
aI0
aI0
aI-54
ag3
aa(lp81
I0
aI0
aI0
aI0
aI0
aI-53
ag3
aa(lp82
I0
aI0
aI0
aI0
aI0
aI-51
ag3
aa(lp83
I0
aI0
aI0
aI0
aI0
aI-51
ag3
aa(lp84
I0
aI0
aI0
aI0
aI0
aI-50
ag3
aa(lp85
I0
aI0
aI0
aI0
aI0
aI-51
ag3
aa(lp86
I0
aI0
aI0
aI0
aI0
aI-50
ag3
aa(lp87
I0
aI0
aI0
aI0
aI0
aI-49
ag3
aa(lp88
I0
aI0
aI0
aI0
aI0
aI-46
ag3
aa(lp89
I0
aI0
aI0
aI0
aI0
aI-48
ag3
aa(lp90
I0
aI0
aI0
aI0
aI0
aI-56
ag3
aa(lp91
I0
aI0
aI0
aI0
aI0
aI-53
ag3
aa(lp92
I0
aI0
aI0
aI0
aI0
aI-47
ag3
aa(lp93
I0
aI0
aI0
aI0
aI0
aI-46
ag3
aa(lp94
I0
aI0
aI0
aI0
aI0
aI-48
ag3
aa(lp95
I0
aI0
aI0
aI0
aI0
aI-46
ag3
aa(lp96
I0
aI0
aI0
aI0
aI0
aI-45
ag3
aa(lp97
I0
aI0
aI0
aI0
aI0
aI-46
ag3
aa(lp98
I0
aI0
aI0
aI0
aI0
aI-46
ag3
aa(lp99
I0
aI0
aI0
aI0
aI0
aI-53
ag3
aa(lp100
I0
aI0
aI0
aI0
aI0
aI-52
ag3
aa(lp101
I0
aI0
aI0
aI0
aI0
aI-53
ag3
aa(lp102
I0
aI0
aI0
aI0
aI0
aI-53
ag3
aa(lp103
I0
aI0
aI0
aI0
aI0
aI-55
ag3
aa(lp104
I0
aI0
aI0
aI0
aI0
aI-54
ag3
aa(lp105
I0
aI0
aI0
aI0
aI0
aI-53
ag3
aa(lp106
I0
aI0
aI0
aI0
aI0
aI-51
ag3
aa(lp107
I0
aI0
aI0
aI0
aI0
aI-51
ag3
aa(lp108
I0
aI0
aI0
aI0
aI0
aI-50
ag3
aa(lp109
I0
aI0
aI0
aI0
aI0
aI-51
ag3
aa(lp110
I0
aI0
aI0
aI0
aI0
aI-50
ag3
aa(lp111
I0
aI0
aI0
aI0
aI0
aI-49
ag3
aa(lp112
I0
aI0
aI0
aI0
aI0
aI-46
ag3
aa(lp113
I0
aI0
aI0
aI0
aI0
aI-48
ag3
aa(lp114
I0
aI0
aI0
aI0
aI0
aI-56
ag3
aa(lp115
I0
aI0
aI0
aI0
aI0
aI-53
ag3
aa(lp116
I0
aI0
aI0
aI0
aI0
aI-47
ag3
aa(lp117
I0
aI0
aI0
aI0
aI0
aI-46
ag3
aa(lp118
I0
aI0
aI0
aI0
aI0
aI-48
ag3
aa(lp119
I0
aI0
aI0
aI0
aI0
aI-46
ag3
aa(lp120
I0
aI0
aI0
aI0
aI0
aI-45
ag3
aa(lp121
I0
aI0
aI0
aI0
aI0
aI-46
ag3
aa(lp122
I0
aI0
aI0
aI0
aI0
aI-46
ag3
aa(lp123
I0
aI0
aI0
aI0
aI0
aI-53
ag3
aa(lp124
I0
aI0
aI0
aI0
aI0
aI-52
ag3
aa(lp125
I0
aI0
aI0
aI0
aI0
aI-53
ag3
aa(lp126
I0
aI0
aI0
aI0
aI0
aI-53
ag3
aa(lp127
I0
aI0
aI0
aI0
aI0
aI-55
ag3
aa(lp128
I0
aI0
aI0
aI0
aI0
aI-54
ag3
aa(lp129
I0
aI0
aI0
aI0
aI0
aI-53
ag3
aa(lp130
I0
aI0
aI0
aI0
aI0
aI-51
ag3
aa(lp131
I0
aI0
aI0
aI0
aI0
aI-51
ag3
aa(lp132
I0
aI0
aI0
aI0
aI0
aI-50
ag3
aa(lp133
I0
aI0
aI0
aI0
aI0
aI-51
ag3
aa(lp134
I0
aI0
aI0
aI0
aI0
aI-50
ag3
aa(lp135
I0
aI0
aI0
aI0
aI0
aI-49
ag3
aa(lp136
I0
aI0
aI0
aI0
aI0
aI-46
ag3
aa(lp137
I0
aI0
aI0
aI0
aI0
aI-48
ag3
aa(lp138
I0
aI0
aI0
aI0
aI0
aI-56
ag3
aa(lp139
I0
aI0
aI0
aI0
aI0
aI-53
ag3
aa(lp140
I0
aI0
aI0
aI0
aI0
aI-47
ag3
aa(lp141
I0
aI0
aI0
aI0
aI0
aI-46
ag3
aa(lp142
I0
aI0
aI0
aI0
aI0
aI-48
ag3
aa(lp143
I0
aI0
aI0
aI0
aI0
aI-46
ag3
aa(lp144
I0
aI0
aI0
aI0
aI0
aI-45
ag3
aa(lp145
I0
aI0
aI0
aI0
aI0
aI-46
ag3
aa(lp146
I0
aI0
aI0
aI0
aI0
aI-46
ag3
aa(lp147
I0
aI0
aI0
aI0
aI0
aI-53
ag3
aa(lp148
I0
aI0
aI0
aI0
aI0
aI-52
ag3
aa(lp149
I0
aI0
aI0
aI0
aI0
aI-53
ag3
aa(lp150
I0
aI0
aI0
aI0
aI0
aI-53
ag3
aa(lp151
I0
aI0
aI0
aI0
aI0
aI-55
ag3
aa(lp152
I0
aI0
aI0
aI0
aI0
aI-54
ag3
aa(lp153
I0
aI0
aI0
aI0
aI0
aI-53
ag3
aa(lp154
I0
aI0
aI0
aI0
aI0
aI-51
ag3
aa(lp155
I0
aI0
aI0
aI0
aI0
aI-51
ag3
aa(lp156
I0
aI0
aI0
aI0
aI0
aI-50
ag3
aa(lp157
I0
aI0
aI0
aI0
aI0
aI-51
ag3
aa(lp158
I0
aI0
aI0
aI0
aI0
aI-50
ag3
aa(lp159
I0
aI0
aI0
aI0
aI0
aI-49
ag3
aa(lp160
I0
aI0
aI0
aI0
aI0
aI-46
ag3
aa(lp161
I0
aI0
aI0
aI0
aI0
aI-48
ag3
aa(lp162
I0
aI0
aI0
aI0
aI0
aI-56
ag3
aa(lp163
I0
aI0
aI0
aI0
aI0
aI-53
ag3
aa(lp164
I0
aI0
aI0
aI0
aI0
aI-47
ag3
aa(lp165
I0
aI0
aI0
aI0
aI0
aI-46
ag3
aa(lp166
I0
aI0
aI0
aI0
aI0
aI-48
ag3
aa(lp167
I0
aI0
aI0
aI0
aI0
aI-46
ag3
aa(lp168
I0
aI0
aI0
aI0
aI0
aI-45
ag3
aa(lp169
I0
aI0
aI0
aI0
aI0
aI-46
ag3
aa(lp170
I0
aI0
aI0
aI0
aI0
aI-46
ag3
aa(lp171
I0
aI0
aI0
aI0
aI0
aI-53
ag3
aa(lp172
I0
aI0
aI0
aI0
aI0
aI-52
ag3
aa(lp173
I0
aI0
aI0
aI0
aI0
aI-53
ag3
aa(lp174
I0
aI0
aI0
aI0
aI0
aI-53
ag3
aa(lp175
I0
aI0
aI0
aI0
aI0
aI-55
ag3
aa(lp176
I0
aI0
aI0
aI0
aI0
aI-54
ag3
aa(lp177
I0
aI0
aI0
aI0
aI0
aI-53
ag3
aa(lp178
I0
aI0
aI0
aI0
aI0
aI-51
ag3
aa(lp179
I0
aI0
aI0
aI0
aI0
aI-51
ag3
aa(lp180
I0
aI0
aI0
aI0
aI0
aI-50
ag3
aa(lp181
I0
aI0
aI0
aI0
aI0
aI-51
ag3
aa(lp182
I0
aI0
aI0
aI0
aI0
aI-50
ag3
aa(lp183
I0
aI0
aI0
aI0
aI0
aI-49
ag3
aa(lp184
I0
aI0
aI0
aI0
aI0
aI-46
ag3
aa(lp185
I0
aI0
aI0
aI0
aI0
aI-48
ag3
aa(lp186
I0
aI0
aI0
aI0
aI0
aI-56
ag3
aa(lp187
I0
aI0
aI0
aI0
aI0
aI-53
ag3
aa(lp188
I0
aI0
aI0
aI0
aI0
aI-47
ag3
aa(lp189
I0
aI0
aI0
aI0
aI0
aI-46
ag3
aa(lp190
I0
aI0
aI0
aI0
aI0
aI-48
ag3
aa(lp191
I0
aI0
aI0
aI0
aI0
aI-46
ag3
aa(lp192
I0
aI0
aI0
aI0
aI0
aI-45
ag3
aa(lp193
I0
aI0
aI0
aI0
aI0
aI-46
ag3
aa(lp194
I0
aI0
aI0
aI0
aI0
aI-46
ag3
aa(lp195
I0
aI0
aI0
aI0
aI0
aI-53
ag3
aa(lp196
I0
aI0
aI0
aI0
aI0
aI-52
ag3
aa(lp197
I0
aI0
aI0
aI0
aI0
aI-53
ag3
aa(lp198
I0
aI0
aI0
aI0
aI0
aI-53
ag3
aa(lp199
I0
aI0
aI0
aI0
aI0
aI-55
ag3
aa(lp200
I0
aI0
aI0
aI0
aI0
aI-54
ag3
aa(lp201
I0
aI0
aI0
aI0
aI0
aI-53
ag3
aa(lp202
I0
aI0
aI0
aI0
aI0
aI-51
ag3
aa(lp203
I0
aI0
aI0
aI0
aI0
aI-51
ag3
aa(lp204
I0
aI0
aI0
aI0
aI0
aI-50
ag3
aa(lp205
I0
aI0
aI0
aI0
aI0
aI-51
ag3
aa(lp206
I0
aI0
aI0
aI0
aI0
aI-50
ag3
aa(lp207
I0
aI0
aI0
aI0
aI0
aI-49
ag3
aa(lp208
I0
aI0
aI0
aI0
aI0
aI-46
ag3
aa(lp209
I0
aI0
aI0
aI0
aI0
aI-48
ag3
aa(lp210
I0
aI0
aI0
aI0
aI0
aI-56
ag3
aa(lp211
I0
aI0
aI0
aI0
aI0
aI-53
ag3
aa(lp212
I0
aI0
aI0
aI0
aI0
aI-47
ag3
aa(lp213
I0
aI0
aI0
aI0
aI0
aI-46
ag3
aa(lp214
I0
aI0
aI0
aI0
aI0
aI-48
ag3
aa(lp215
I0
aI0
aI0
aI0
aI0
aI-46
ag3
aa(lp216
I0
aI0
aI0
aI0
aI0
aI-45
ag3
aa(lp217
I0
aI0
aI0
aI0
aI0
aI-46
ag3
aa(lp218
I0
aI0
aI0
aI0
aI0
aI-46
ag3
aa(lp219
I0
aI0
aI0
aI0
aI0
aI-53
ag3
aa(lp220
I0
aI0
aI0
aI0
aI0
aI-52
ag3
aa(lp221
I0
aI0
aI0
aI0
aI0
aI-53
ag3
aa(lp222
I0
aI0
aI0
aI0
aI0
aI-53
ag3
aa(lp223
I0
aI0
aI0
aI0
aI0
aI-55
ag3
aa(lp224
I0
aI0
aI0
aI0
aI0
aI-54
ag3
aa(lp225
I0
aI0
aI0
aI0
aI0
aI-53
ag3
aa(lp226
I0
aI0
aI0
aI0
aI0
aI-51
ag3
aa(lp227
I0
aI0
aI0
aI0
aI0
aI-51
ag3
aa(lp228
I0
aI0
aI0
aI0
aI0
aI-50
ag3
aa(lp229
I0
aI0
aI0
aI0
aI0
aI-51
ag3
aa(lp230
I0
aI0
aI0
aI0
aI0
aI-50
ag3
aa(lp231
I0
aI0
aI0
aI0
aI0
aI-49
ag3
aa(lp232
I0
aI0
aI0
aI0
aI0
aI-46
ag3
aa(lp233
I0
aI0
aI0
aI0
aI0
aI-48
ag3
aa(lp234
I0
aI0
aI0
aI0
aI0
aI-56
ag3
aa(lp235
I0
aI0
aI0
aI0
aI0
aI-53
ag3
aa(lp236
I0
aI0
aI0
aI0
aI0
aI-47
ag3
aa(lp237
I0
aI0
aI0
aI0
aI0
aI-46
ag3
aa(lp238
I0
aI0
aI0
aI0
aI0
aI-48
ag3
aa(lp239
I0
aI0
aI0
aI0
aI0
aI-46
ag3
aa(lp240
I0
aI0
aI0
aI0
aI0
aI-45
ag3
aa(lp241
I0
aI0
aI0
aI0
aI0
aI-46
ag3
aa(lp242
I0
aI0
aI0
aI0
aI0
aI-46
ag3
aa(lp243
I0
aI0
aI0
aI0
aI0
aI-53
ag3
aa(lp244
I0
aI0
aI0
aI0
aI0
aI-52
ag3
aa(lp245
I0
aI0
aI0
aI0
aI0
aI-53
ag3
aa(lp246
I0
aI0
aI0
aI0
aI0
aI-53
ag3
aa(lp247
I0
aI0
aI0
aI0
aI0
aI-55
ag3
aa(lp248
I0
aI0
aI0
aI0
aI0
aI-54
ag3
aa(lp249
I0
aI0
aI0
aI0
aI0
aI-53
ag3
aa(lp250
I0
aI0
aI0
aI0
aI0
aI-51
ag3
aa(lp251
I0
aI0
aI0
aI0
aI0
aI-51
ag3
aa(lp252
I0
aI0
aI0
aI0
aI0
aI-50
ag3
aa(lp253
I0
aI0
aI0
aI0
aI0
aI-51
ag3
aa(lp254
I0
aI0
aI0
aI0
aI0
aI-50
ag3
aa(lp255
I0
aI0
aI0
aI0
aI0
aI-49
ag3
aa(lp256
I0
aI0
aI0
aI0
aI0
aI-46
ag3
aa(lp257
I0
aI0
aI0
aI0
aI0
aI-48
ag3
aa(lp258
I0
aI0
aI0
aI0
aI0
aI-56
ag3
aa(lp259
I0
aI0
aI0
aI0
aI0
aI-53
ag3
aa(lp260
I0
aI0
aI0
aI0
aI0
aI-47
ag3
aa(lp261
I0
aI0
aI0
aI0
aI0
aI-46
ag3
aa(lp262
I0
aI0
aI0
aI0
aI0
aI-48
ag3
aa(lp263
I0
aI0
aI0
aI0
aI0
aI-46
ag3
aa(lp264
I0
aI0
aI0
aI0
aI0
aI-45
ag3
aa(lp265
I0
aI0
aI0
aI0
aI0
aI-46
ag3
aa(lp266
I0
aI0
aI0
aI0
aI0
aI-46
ag3
aa(lp267
I0
aI0
aI0
aI0
aI0
aI-53
ag3
aa(lp268
I0
aI0
aI0
aI0
aI0
aI-52
ag3
aa(lp269
I0
aI0
aI0
aI0
aI0
aI-53
ag3
aa(lp270
I0
aI0
aI0
aI0
aI0
aI-53
ag3
aa(lp271
I0
aI0
aI0
aI0
aI0
aI-55
ag3
aa(lp272
I0
aI0
aI0
aI0
aI0
aI-54
ag3
aa(lp273
I0
aI0
aI0
aI0
aI0
aI-53
ag3
aa(lp274
I0
aI0
aI0
aI0
aI0
aI-51
ag3
aa(lp275
I0
aI0
aI0
aI0
aI0
aI-51
ag3
aa(lp276
I0
aI0
aI0
aI0
aI0
aI-50
ag3
aa(lp277
I0
aI0
aI0
aI0
aI0
aI-51
ag3
aa(lp278
I0
aI0
aI0
aI0
aI0
aI-50
ag3
aa(lp279
I0
aI0
aI0
aI0
aI0
aI-49
ag3
aa(lp280
I0
aI0
aI0
aI0
aI0
aI-46
ag3
aa(lp281
I0
aI0
aI0
aI0
aI0
aI-48
ag3
aa(lp282
I0
aI0
aI0
aI0
aI0
aI-56
ag3
aa(lp283
I0
aI0
aI0
aI0
aI0
aI-53
ag3
aa(lp284
I0
aI0
aI0
aI0
aI0
aI-47
ag3
aa(lp285
I0
aI0
aI0
aI0
aI0
aI-46
ag3
aa(lp286
I0
aI0
aI0
aI0
aI0
aI-48
ag3
aa(lp287
I0
aI0
aI0
aI0
aI0
aI-46
ag3
aa(lp288
I0
aI0
aI0
aI0
aI0
aI-45
ag3
aa(lp289
I0
aI0
aI0
aI0
aI0
aI-46
ag3
aa(lp290
I0
aI0
aI0
aI0
aI0
aI-46
ag3
aa(lp291
I0
aI0
aI0
aI0
aI0
aI-53
ag3
aa(lp292
I0
aI0
aI0
aI0
aI0
aI-52
ag3
aa(lp293
I0
aI0
aI0
aI0
aI0
aI-53
ag3
aa(lp294
I0
aI0
aI0
aI0
aI0
aI-53
ag3
aa(lp295
I0
aI0
aI0
aI0
aI0
aI-55
ag3
aa(lp296
I0
aI0
aI0
aI0
aI0
aI-54
ag3
aa(lp297
I0
aI0
aI0
aI0
aI0
aI-53
ag3
aa(lp298
I0
aI0
aI0
aI0
aI0
aI-51
ag3
aa(lp299
I0
aI0
aI0
aI0
aI0
aI-51
ag3
aa(lp300
I0
aI0
aI0
aI0
aI0
aI-50
ag3
aa(lp301
I0
aI0
aI0
aI0
aI0
aI-51
ag3
aa(lp302
I0
aI0
aI0
aI0
aI0
aI-50
ag3
aa(lp303
I0
aI0
aI0
aI0
aI0
aI-49
ag3
aa(lp304
I0
aI0
aI0
aI0
aI0
aI-46
ag3
aa(lp305
I0
aI0
aI0
aI0
aI0
aI-48
ag3
aa(lp306
I0
aI0
aI0
aI0
aI0
aI-56
ag3
aa(lp307
I0
aI0
aI0
aI0
aI0
aI-53
ag3
aa(lp308
I0
aI0
aI0
aI0
aI0
aI-47
ag3
aa(lp309
I0
aI0
aI0
aI0
aI0
aI-46
ag3
aa(lp310
I0
aI0
aI0
aI0
aI0
aI-48
ag3
aa(lp311
I0
aI0
aI0
aI0
aI0
aI-46
ag3
aa(lp312
I0
aI0
aI0
aI0
aI0
aI-45
ag3
aa(lp313
I0
aI0
aI0
aI0
aI0
aI-46
ag3
aa(lp314
I0
aI0
aI0
aI0
aI0
aI-46
ag3
aa(lp315
I0
aI0
aI0
aI0
aI0
aI-53
ag3
aa(lp316
I0
aI0
aI0
aI0
aI0
aI-52
ag3
aa(lp317
I0
aI0
aI0
aI0
aI0
aI-53
ag3
aa(lp318
I0
aI0
aI0
aI0
aI0
aI-53
ag3
aa(lp319
I0
aI0
aI0
aI0
aI0
aI-55
ag3
aa(lp320
I0
aI0
aI0
aI0
aI0
aI-54
ag3
aa(lp321
I0
aI0
aI0
aI0
aI0
aI-53
ag3
aa(lp322
I0
aI0
aI0
aI0
aI0
aI-51
ag3
aa(lp323
I0
aI0
aI0
aI0
aI0
aI-51
ag3
aa(lp324
I0
aI0
aI0
aI0
aI0
aI-50
ag3
aa(lp325
I0
aI0
aI0
aI0
aI0
aI-51
ag3
aa(lp326
I0
aI0
aI0
aI0
aI0
aI-50
ag3
aa(lp327
I0
aI0
aI0
aI0
aI0
aI-49
ag3
aa(lp328
I0
aI0
aI0
aI0
aI0
aI-46
ag3
aa(lp329
I0
aI0
aI0
aI0
aI0
aI-48
ag3
aa(lp330
I0
aI0
aI0
aI0
aI0
aI-56
ag3
aa(lp331
I0
aI0
aI0
aI0
aI0
aI-53
ag3
aa(lp332
I0
aI0
aI0
aI0
aI0
aI-47
ag3
aa(lp333
I0
aI0
aI0
aI0
aI0
aI-46
ag3
aa(lp334
I0
aI0
aI0
aI0
aI0
aI-48
ag3
aa(lp335
I0
aI0
aI0
aI0
aI0
aI-46
ag3
aa(lp336
I0
aI0
aI0
aI0
aI0
aI-45
ag3
aa(lp337
I0
aI0
aI0
aI0
aI0
aI-46
ag3
aa(lp338
I0
aI0
aI0
aI0
aI0
aI-46
ag3
aa(lp339
I0
aI0
aI0
aI0
aI0
aI-53
ag3
aa(lp340
I0
aI0
aI0
aI0
aI0
aI-52
ag3
aa(lp341
I0
aI0
aI0
aI0
aI0
aI-53
ag3
aa(lp342
I0
aI0
aI0
aI0
aI0
aI-53
ag3
aa(lp343
I0
aI0
aI0
aI0
aI0
aI-55
ag3
aa(lp344
I0
aI0
aI0
aI0
aI0
aI-54
ag3
aa(lp345
I0
aI0
aI0
aI0
aI0
aI-53
ag3
aa(lp346
I0
aI0
aI0
aI0
aI0
aI-51
ag3
aa(lp347
I0
aI0
aI0
aI0
aI0
aI-51
ag3
aa(lp348
I0
aI0
aI0
aI0
aI0
aI-50
ag3
aa(lp349
I0
aI0
aI0
aI0
aI0
aI-51
ag3
aa(lp350
I0
aI0
aI0
aI0
aI0
aI-50
ag3
aa(lp351
I0
aI0
aI0
aI0
aI0
aI-49
ag3
aa(lp352
I0
aI0
aI0
aI0
aI0
aI-46
ag3
aa(lp353
I0
aI0
aI0
aI0
aI0
aI-48
ag3
aa(lp354
I0
aI0
aI0
aI0
aI0
aI-56
ag3
aa(lp355
I0
aI0
aI0
aI0
aI0
aI-53
ag3
aa(lp356
I0
aI0
aI0
aI0
aI0
aI-47
ag3
aa(lp357
I0
aI0
aI0
aI0
aI0
aI-46
ag3
aa(lp358
I0
aI0
aI0
aI0
aI0
aI-48
ag3
aa(lp359
I0
aI0
aI0
aI0
aI0
aI-46
ag3
aa(lp360
I0
aI0
aI0
aI0
aI0
aI-45
ag3
aa(lp361
I0
aI0
aI0
aI0
aI0
aI-46
ag3
aa(lp362
I0
aI0
aI0
aI0
aI0
aI-46
ag3
aa(lp363
I0
aI0
aI0
aI0
aI0
aI-53
ag3
aa(lp364
I0
aI0
aI0
aI0
aI0
aI-52
ag3
aa(lp365
I0
aI0
aI0
aI0
aI0
aI-53
ag3
aa(lp366
I0
aI0
aI0
aI0
aI0
aI-53
ag3
aa(lp367
I0
aI0
aI0
aI0
aI0
aI-55
ag3
aa(lp368
I0
aI0
aI0
aI0
aI0
aI-54
ag3
aa(lp369
I0
aI0
aI0
aI0
aI0
aI-53
ag3
aa(lp370
I0
aI0
aI0
aI0
aI0
aI-51
ag3
aa(lp371
I0
aI0
aI0
aI0
aI0
aI-51
ag3
aa(lp372
I0
aI0
aI0
aI0
aI0
aI-50
ag3
aa(lp373
I0
aI0
aI0
aI0
aI0
aI-51
ag3
aa(lp374
I0
aI0
aI0
aI0
aI0
aI-50
ag3
aa(lp375
I0
aI0
aI0
aI0
aI0
aI-49
ag3
aa(lp376
I0
aI0
aI0
aI0
aI0
aI-46
ag3
aa(lp377
I0
aI0
aI0
aI0
aI0
aI-48
ag3
aa(lp378
I0
aI0
aI0
aI0
aI0
aI-56
ag3
aa(lp379
I0
aI0
aI0
aI0
aI0
aI-53
ag3
aa(lp380
I0
aI0
aI0
aI0
aI0
aI-47
ag3
aa(lp381
I0
aI0
aI0
aI0
aI0
aI-46
ag3
aa(lp382
I0
aI0
aI0
aI0
aI0
aI-48
ag3
aa(lp383
I0
aI0
aI0
aI0
aI0
aI-46
ag3
aa(lp384
I0
aI0
aI0
aI0
aI0
aI-45
ag3
aa(lp385
I0
aI0
aI0
aI0
aI0
aI-46
ag3
aa(lp386
I0
aI0
aI0
aI0
aI0
aI-46
ag3
aa(lp387
I0
aI0
aI0
aI0
aI0
aI-53
ag3
aa(lp388
I0
aI0
aI0
aI0
aI0
aI-52
ag3
aa(lp389
I0
aI0
aI0
aI0
aI0
aI-53
ag3
aa(lp390
I0
aI0
aI0
aI0
aI0
aI-53
ag3
aa(lp391
I0
aI0
aI0
aI0
aI0
aI-55
ag3
aa(lp392
I0
aI0
aI0
aI0
aI0
aI-54
ag3
aa(lp393
I0
aI0
aI0
aI0
aI0
aI-53
ag3
aa(lp394
I0
aI0
aI0
aI0
aI0
aI-51
ag3
aa(lp395
I0
aI0
aI0
aI0
aI0
aI-51
ag3
aa(lp396
I0
aI0
aI0
aI0
aI0
aI-50
ag3
aa(lp397
I0
aI0
aI0
aI0
aI0
aI-51
ag3
aa(lp398
I0
aI0
aI0
aI0
aI0
aI-50
ag3
aa(lp399
I0
aI0
aI0
aI0
aI0
aI-49
ag3
aa(lp400
I0
aI0
aI0
aI0
aI0
aI-46
ag3
aa(lp401
I0
aI0
aI0
aI0
aI0
aI-48
ag3
aa(lp402
I0
aI0
aI0
aI0
aI0
aI-56
ag3
aa(lp403
I0
aI0
aI0
aI0
aI0
aI-53
ag3
aa(lp404
I0
aI0
aI0
aI0
aI0
aI-47
ag3
aa(lp405
I0
aI0
aI0
aI0
aI0
aI-46
ag3
aa(lp406
I0
aI0
aI0
aI0
aI0
aI-48
ag3
aa(lp407
I0
aI0
aI0
aI0
aI0
aI-46
ag3
aa(lp408
I0
aI0
aI0
aI0
aI0
aI-45
ag3
aa(lp409
I0
aI0
aI0
aI0
aI0
aI-46
ag3
aa(lp410
I0
aI0
aI0
aI0
aI0
aI-46
ag3
aa(lp411
I0
aI0
aI0
aI0
aI0
aI-60
aS'Raum2'
p412
aa(lp413
I0
aI0
aI0
aI0
aI0
aI-59
ag412
aa(lp414
I0
aI0
aI0
aI0
aI0
aI-61
ag412
aa(lp415
I0
aI0
aI0
aI0
aI0
aI-61
ag412
aa(lp416
I0
aI0
aI0
aI0
aI0
aI-61
ag412
aa(lp417
I0
aI0
aI0
aI0
aI0
aI-61
ag412
aa(lp418
I0
aI0
aI0
aI0
aI0
aI-63
ag412
aa(lp419
I0
aI0
aI0
aI0
aI0
aI-62
ag412
aa(lp420
I0
aI0
aI0
aI0
aI0
aI-65
ag412
aa(lp421
I0
aI0
aI0
aI0
aI0
aI-65
ag412
aa(lp422
I0
aI0
aI0
aI0
aI0
aI-68
ag412
aa(lp423
I0
aI0
aI0
aI0
aI0
aI-67
ag412
aa(lp424
I0
aI0
aI0
aI0
aI0
aI-68
ag412
aa(lp425
I0
aI0
aI0
aI0
aI0
aI-70
ag412
aa(lp426
I0
aI0
aI0
aI0
aI0
aI-72
ag412
aa(lp427
I0
aI0
aI0
aI0
aI0
aI-69
ag412
aa(lp428
I0
aI0
aI0
aI0
aI0
aI-65
ag412
aa(lp429
I0
aI0
aI0
aI0
aI0
aI-60
ag412
aa(lp430
I0
aI0
aI0
aI0
aI0
aI-59
ag412
aa(lp431
I0
aI0
aI0
aI0
aI0
aI-61
ag412
aa(lp432
I0
aI0
aI0
aI0
aI0
aI-61
ag412
aa(lp433
I0
aI0
aI0
aI0
aI0
aI-61
ag412
aa(lp434
I0
aI0
aI0
aI0
aI0
aI-61
ag412
aa(lp435
I0
aI0
aI0
aI0
aI0
aI-63
ag412
aa(lp436
I0
aI0
aI0
aI0
aI0
aI-62
ag412
aa(lp437
I0
aI0
aI0
aI0
aI0
aI-65
ag412
aa(lp438
I0
aI0
aI0
aI0
aI0
aI-65
ag412
aa(lp439
I0
aI0
aI0
aI0
aI0
aI-68
ag412
aa(lp440
I0
aI0
aI0
aI0
aI0
aI-67
ag412
aa(lp441
I0
aI0
aI0
aI0
aI0
aI-68
ag412
aa(lp442
I0
aI0
aI0
aI0
aI0
aI-70
ag412
aa(lp443
I0
aI0
aI0
aI0
aI0
aI-72
ag412
aa(lp444
I0
aI0
aI0
aI0
aI0
aI-69
ag412
aa(lp445
I0
aI0
aI0
aI0
aI0
aI-65
ag412
aa(lp446
I0
aI0
aI0
aI0
aI0
aI-60
ag412
aa(lp447
I0
aI0
aI0
aI0
aI0
aI-59
ag412
aa(lp448
I0
aI0
aI0
aI0
aI0
aI-61
ag412
aa(lp449
I0
aI0
aI0
aI0
aI0
aI-61
ag412
aa(lp450
I0
aI0
aI0
aI0
aI0
aI-61
ag412
aa(lp451
I0
aI0
aI0
aI0
aI0
aI-61
ag412
aa(lp452
I0
aI0
aI0
aI0
aI0
aI-63
ag412
aa(lp453
I0
aI0
aI0
aI0
aI0
aI-62
ag412
aa(lp454
I0
aI0
aI0
aI0
aI0
aI-65
ag412
aa(lp455
I0
aI0
aI0
aI0
aI0
aI-65
ag412
aa(lp456
I0
aI0
aI0
aI0
aI0
aI-68
ag412
aa(lp457
I0
aI0
aI0
aI0
aI0
aI-67
ag412
aa(lp458
I0
aI0
aI0
aI0
aI0
aI-68
ag412
aa(lp459
I0
aI0
aI0
aI0
aI0
aI-70
ag412
aa(lp460
I0
aI0
aI0
aI0
aI0
aI-72
ag412
aa(lp461
I0
aI0
aI0
aI0
aI0
aI-69
ag412
aa(lp462
I0
aI0
aI0
aI0
aI0
aI-65
ag412
aa(lp463
I0
aI0
aI0
aI0
aI0
aI-60
ag412
aa(lp464
I0
aI0
aI0
aI0
aI0
aI-59
ag412
aa(lp465
I0
aI0
aI0
aI0
aI0
aI-61
ag412
aa(lp466
I0
aI0
aI0
aI0
aI0
aI-61
ag412
aa(lp467
I0
aI0
aI0
aI0
aI0
aI-61
ag412
aa(lp468
I0
aI0
aI0
aI0
aI0
aI-61
ag412
aa(lp469
I0
aI0
aI0
aI0
aI0
aI-63
ag412
aa(lp470
I0
aI0
aI0
aI0
aI0
aI-62
ag412
aa(lp471
I0
aI0
aI0
aI0
aI0
aI-65
ag412
aa(lp472
I0
aI0
aI0
aI0
aI0
aI-65
ag412
aa(lp473
I0
aI0
aI0
aI0
aI0
aI-68
ag412
aa(lp474
I0
aI0
aI0
aI0
aI0
aI-67
ag412
aa(lp475
I0
aI0
aI0
aI0
aI0
aI-68
ag412
aa(lp476
I0
aI0
aI0
aI0
aI0
aI-70
ag412
aa(lp477
I0
aI0
aI0
aI0
aI0
aI-72
ag412
aa(lp478
I0
aI0
aI0
aI0
aI0
aI-69
ag412
aa(lp479
I0
aI0
aI0
aI0
aI0
aI-65
ag412
aa(lp480
I0
aI0
aI0
aI0
aI0
aI-60
ag412
aa(lp481
I0
aI0
aI0
aI0
aI0
aI-59
ag412
aa(lp482
I0
aI0
aI0
aI0
aI0
aI-61
ag412
aa(lp483
I0
aI0
aI0
aI0
aI0
aI-61
ag412
aa(lp484
I0
aI0
aI0
aI0
aI0
aI-61
ag412
aa(lp485
I0
aI0
aI0
aI0
aI0
aI-61
ag412
aa(lp486
I0
aI0
aI0
aI0
aI0
aI-63
ag412
aa(lp487
I0
aI0
aI0
aI0
aI0
aI-62
ag412
aa(lp488
I0
aI0
aI0
aI0
aI0
aI-65
ag412
aa(lp489
I0
aI0
aI0
aI0
aI0
aI-65
ag412
aa(lp490
I0
aI0
aI0
aI0
aI0
aI-68
ag412
aa(lp491
I0
aI0
aI0
aI0
aI0
aI-67
ag412
aa(lp492
I0
aI0
aI0
aI0
aI0
aI-68
ag412
aa(lp493
I0
aI0
aI0
aI0
aI0
aI-70
ag412
aa(lp494
I0
aI0
aI0
aI0
aI0
aI-72
ag412
aa(lp495
I0
aI0
aI0
aI0
aI0
aI-69
ag412
aa(lp496
I0
aI0
aI0
aI0
aI0
aI-65
ag412
aa(lp497
I0
aI0
aI0
aI0
aI0
aI-60
ag412
aa(lp498
I0
aI0
aI0
aI0
aI0
aI-59
ag412
aa(lp499
I0
aI0
aI0
aI0
aI0
aI-61
ag412
aa(lp500
I0
aI0
aI0
aI0
aI0
aI-61
ag412
aa(lp501
I0
aI0
aI0
aI0
aI0
aI-61
ag412
aa(lp502
I0
aI0
aI0
aI0
aI0
aI-61
ag412
aa(lp503
I0
aI0
aI0
aI0
aI0
aI-63
ag412
aa(lp504
I0
aI0
aI0
aI0
aI0
aI-62
ag412
aa(lp505
I0
aI0
aI0
aI0
aI0
aI-65
ag412
aa(lp506
I0
aI0
aI0
aI0
aI0
aI-65
ag412
aa(lp507
I0
aI0
aI0
aI0
aI0
aI-68
ag412
aa(lp508
I0
aI0
aI0
aI0
aI0
aI-67
ag412
aa(lp509
I0
aI0
aI0
aI0
aI0
aI-68
ag412
aa(lp510
I0
aI0
aI0
aI0
aI0
aI-70
ag412
aa(lp511
I0
aI0
aI0
aI0
aI0
aI-72
ag412
aa(lp512
I0
aI0
aI0
aI0
aI0
aI-69
ag412
aa(lp513
I0
aI0
aI0
aI0
aI0
aI-65
ag412
aa(lp514
I0
aI0
aI0
aI0
aI0
aI-60
ag412
aa(lp515
I0
aI0
aI0
aI0
aI0
aI-59
ag412
aa(lp516
I0
aI0
aI0
aI0
aI0
aI-61
ag412
aa(lp517
I0
aI0
aI0
aI0
aI0
aI-61
ag412
aa(lp518
I0
aI0
aI0
aI0
aI0
aI-61
ag412
aa(lp519
I0
aI0
aI0
aI0
aI0
aI-61
ag412
aa(lp520
I0
aI0
aI0
aI0
aI0
aI-63
ag412
aa(lp521
I0
aI0
aI0
aI0
aI0
aI-62
ag412
aa(lp522
I0
aI0
aI0
aI0
aI0
aI-65
ag412
aa(lp523
I0
aI0
aI0
aI0
aI0
aI-65
ag412
aa(lp524
I0
aI0
aI0
aI0
aI0
aI-68
ag412
aa(lp525
I0
aI0
aI0
aI0
aI0
aI-67
ag412
aa(lp526
I0
aI0
aI0
aI0
aI0
aI-68
ag412
aa(lp527
I0
aI0
aI0
aI0
aI0
aI-70
ag412
aa(lp528
I0
aI0
aI0
aI0
aI0
aI-72
ag412
aa(lp529
I0
aI0
aI0
aI0
aI0
aI-69
ag412
aa(lp530
I0
aI0
aI0
aI0
aI0
aI-65
ag412
aa(lp531
I0
aI0
aI0
aI0
aI0
aI-60
ag412
aa(lp532
I0
aI0
aI0
aI0
aI0
aI-59
ag412
aa(lp533
I0
aI0
aI0
aI0
aI0
aI-61
ag412
aa(lp534
I0
aI0
aI0
aI0
aI0
aI-61
ag412
aa(lp535
I0
aI0
aI0
aI0
aI0
aI-61
ag412
aa(lp536
I0
aI0
aI0
aI0
aI0
aI-61
ag412
aa(lp537
I0
aI0
aI0
aI0
aI0
aI-63
ag412
aa(lp538
I0
aI0
aI0
aI0
aI0
aI-62
ag412
aa(lp539
I0
aI0
aI0
aI0
aI0
aI-65
ag412
aa(lp540
I0
aI0
aI0
aI0
aI0
aI-65
ag412
aa(lp541
I0
aI0
aI0
aI0
aI0
aI-68
ag412
aa(lp542
I0
aI0
aI0
aI0
aI0
aI-67
ag412
aa(lp543
I0
aI0
aI0
aI0
aI0
aI-68
ag412
aa(lp544
I0
aI0
aI0
aI0
aI0
aI-70
ag412
aa(lp545
I0
aI0
aI0
aI0
aI0
aI-72
ag412
aa(lp546
I0
aI0
aI0
aI0
aI0
aI-69
ag412
aa(lp547
I0
aI0
aI0
aI0
aI0
aI-65
ag412
aa(lp548
I0
aI0
aI0
aI0
aI0
aI-60
ag412
aa(lp549
I0
aI0
aI0
aI0
aI0
aI-59
ag412
aa(lp550
I0
aI0
aI0
aI0
aI0
aI-61
ag412
aa(lp551
I0
aI0
aI0
aI0
aI0
aI-61
ag412
aa(lp552
I0
aI0
aI0
aI0
aI0
aI-61
ag412
aa(lp553
I0
aI0
aI0
aI0
aI0
aI-61
ag412
aa(lp554
I0
aI0
aI0
aI0
aI0
aI-63
ag412
aa(lp555
I0
aI0
aI0
aI0
aI0
aI-62
ag412
aa(lp556
I0
aI0
aI0
aI0
aI0
aI-65
ag412
aa(lp557
I0
aI0
aI0
aI0
aI0
aI-65
ag412
aa(lp558
I0
aI0
aI0
aI0
aI0
aI-68
ag412
aa(lp559
I0
aI0
aI0
aI0
aI0
aI-67
ag412
aa(lp560
I0
aI0
aI0
aI0
aI0
aI-68
ag412
aa(lp561
I0
aI0
aI0
aI0
aI0
aI-70
ag412
aa(lp562
I0
aI0
aI0
aI0
aI0
aI-72
ag412
aa(lp563
I0
aI0
aI0
aI0
aI0
aI-69
ag412
aa(lp564
I0
aI0
aI0
aI0
aI0
aI-65
ag412
aa(lp565
I0
aI0
aI0
aI0
aI0
aI-60
ag412
aa(lp566
I0
aI0
aI0
aI0
aI0
aI-59
ag412
aa(lp567
I0
aI0
aI0
aI0
aI0
aI-61
ag412
aa(lp568
I0
aI0
aI0
aI0
aI0
aI-61
ag412
aa(lp569
I0
aI0
aI0
aI0
aI0
aI-61
ag412
aa(lp570
I0
aI0
aI0
aI0
aI0
aI-61
ag412
aa(lp571
I0
aI0
aI0
aI0
aI0
aI-63
ag412
aa(lp572
I0
aI0
aI0
aI0
aI0
aI-62
ag412
aa(lp573
I0
aI0
aI0
aI0
aI0
aI-65
ag412
aa(lp574
I0
aI0
aI0
aI0
aI0
aI-65
ag412
aa(lp575
I0
aI0
aI0
aI0
aI0
aI-68
ag412
aa(lp576
I0
aI0
aI0
aI0
aI0
aI-67
ag412
aa(lp577
I0
aI0
aI0
aI0
aI0
aI-68
ag412
aa(lp578
I0
aI0
aI0
aI0
aI0
aI-70
ag412
aa(lp579
I0
aI0
aI0
aI0
aI0
aI-72
ag412
aa(lp580
I0
aI0
aI0
aI0
aI0
aI-69
ag412
aa(lp581
I0
aI0
aI0
aI0
aI0
aI-65
ag412
aa(lp582
I0
aI0
aI0
aI0
aI0
aI-60
ag412
aa(lp583
I0
aI0
aI0
aI0
aI0
aI-59
ag412
aa(lp584
I0
aI0
aI0
aI0
aI0
aI-61
ag412
aa(lp585
I0
aI0
aI0
aI0
aI0
aI-61
ag412
aa(lp586
I0
aI0
aI0
aI0
aI0
aI-61
ag412
aa(lp587
I0
aI0
aI0
aI0
aI0
aI-61
ag412
aa(lp588
I0
aI0
aI0
aI0
aI0
aI-63
ag412
aa(lp589
I0
aI0
aI0
aI0
aI0
aI-62
ag412
aa(lp590
I0
aI0
aI0
aI0
aI0
aI-65
ag412
aa(lp591
I0
aI0
aI0
aI0
aI0
aI-65
ag412
aa(lp592
I0
aI0
aI0
aI0
aI0
aI-68
ag412
aa(lp593
I0
aI0
aI0
aI0
aI0
aI-67
ag412
aa(lp594
I0
aI0
aI0
aI0
aI0
aI-68
ag412
aa(lp595
I0
aI0
aI0
aI0
aI0
aI-70
ag412
aa(lp596
I0
aI0
aI0
aI0
aI0
aI-72
ag412
aa(lp597
I0
aI0
aI0
aI0
aI0
aI-69
ag412
aa(lp598
I0
aI0
aI0
aI0
aI0
aI-65
ag412
aa(lp599
I0
aI0
aI0
aI0
aI0
aI-60
ag412
aa(lp600
I0
aI0
aI0
aI0
aI0
aI-59
ag412
aa(lp601
I0
aI0
aI0
aI0
aI0
aI-61
ag412
aa(lp602
I0
aI0
aI0
aI0
aI0
aI-61
ag412
aa(lp603
I0
aI0
aI0
aI0
aI0
aI-61
ag412
aa(lp604
I0
aI0
aI0
aI0
aI0
aI-61
ag412
aa(lp605
I0
aI0
aI0
aI0
aI0
aI-63
ag412
aa(lp606
I0
aI0
aI0
aI0
aI0
aI-62
ag412
aa(lp607
I0
aI0
aI0
aI0
aI0
aI-65
ag412
aa(lp608
I0
aI0
aI0
aI0
aI0
aI-65
ag412
aa(lp609
I0
aI0
aI0
aI0
aI0
aI-68
ag412
aa(lp610
I0
aI0
aI0
aI0
aI0
aI-67
ag412
aa(lp611
I0
aI0
aI0
aI0
aI0
aI-68
ag412
aa(lp612
I0
aI0
aI0
aI0
aI0
aI-70
ag412
aa(lp613
I0
aI0
aI0
aI0
aI0
aI-72
ag412
aa(lp614
I0
aI0
aI0
aI0
aI0
aI-69
ag412
aa(lp615
I0
aI0
aI0
aI0
aI0
aI-65
ag412
aa(lp616
I0
aI0
aI0
aI0
aI0
aI-60
ag412
aa(lp617
I0
aI0
aI0
aI0
aI0
aI-59
ag412
aa(lp618
I0
aI0
aI0
aI0
aI0
aI-61
ag412
aa(lp619
I0
aI0
aI0
aI0
aI0
aI-61
ag412
aa(lp620
I0
aI0
aI0
aI0
aI0
aI-61
ag412
aa(lp621
I0
aI0
aI0
aI0
aI0
aI-61
ag412
aa(lp622
I0
aI0
aI0
aI0
aI0
aI-63
ag412
aa(lp623
I0
aI0
aI0
aI0
aI0
aI-62
ag412
aa(lp624
I0
aI0
aI0
aI0
aI0
aI-65
ag412
aa(lp625
I0
aI0
aI0
aI0
aI0
aI-65
ag412
aa(lp626
I0
aI0
aI0
aI0
aI0
aI-68
ag412
aa(lp627
I0
aI0
aI0
aI0
aI0
aI-67
ag412
aa(lp628
I0
aI0
aI0
aI0
aI0
aI-68
ag412
aa(lp629
I0
aI0
aI0
aI0
aI0
aI-70
ag412
aa(lp630
I0
aI0
aI0
aI0
aI0
aI-72
ag412
aa(lp631
I0
aI0
aI0
aI0
aI0
aI-69
ag412
aa(lp632
I0
aI0
aI0
aI0
aI0
aI-65
ag412
aa(lp633
I0
aI0
aI0
aI0
aI0
aI-60
ag412
aa(lp634
I0
aI0
aI0
aI0
aI0
aI-59
ag412
aa(lp635
I0
aI0
aI0
aI0
aI0
aI-61
ag412
aa(lp636
I0
aI0
aI0
aI0
aI0
aI-61
ag412
aa(lp637
I0
aI0
aI0
aI0
aI0
aI-61
ag412
aa(lp638
I0
aI0
aI0
aI0
aI0
aI-61
ag412
aa(lp639
I0
aI0
aI0
aI0
aI0
aI-63
ag412
aa(lp640
I0
aI0
aI0
aI0
aI0
aI-62
ag412
aa(lp641
I0
aI0
aI0
aI0
aI0
aI-65
ag412
aa(lp642
I0
aI0
aI0
aI0
aI0
aI-65
ag412
aa(lp643
I0
aI0
aI0
aI0
aI0
aI-68
ag412
aa(lp644
I0
aI0
aI0
aI0
aI0
aI-67
ag412
aa(lp645
I0
aI0
aI0
aI0
aI0
aI-68
ag412
aa(lp646
I0
aI0
aI0
aI0
aI0
aI-70
ag412
aa(lp647
I0
aI0
aI0
aI0
aI0
aI-72
ag412
aa(lp648
I0
aI0
aI0
aI0
aI0
aI-69
ag412
aa(lp649
I0
aI0
aI0
aI0
aI0
aI-65
ag412
aa(lp650
I0
aI0
aI0
aI0
aI0
aI-60
ag412
aa(lp651
I0
aI0
aI0
aI0
aI0
aI-59
ag412
aa(lp652
I0
aI0
aI0
aI0
aI0
aI-61
ag412
aa(lp653
I0
aI0
aI0
aI0
aI0
aI-61
ag412
aa(lp654
I0
aI0
aI0
aI0
aI0
aI-61
ag412
aa(lp655
I0
aI0
aI0
aI0
aI0
aI-61
ag412
aa(lp656
I0
aI0
aI0
aI0
aI0
aI-63
ag412
aa(lp657
I0
aI0
aI0
aI0
aI0
aI-62
ag412
aa(lp658
I0
aI0
aI0
aI0
aI0
aI-65
ag412
aa(lp659
I0
aI0
aI0
aI0
aI0
aI-65
ag412
aa(lp660
I0
aI0
aI0
aI0
aI0
aI-68
ag412
aa(lp661
I0
aI0
aI0
aI0
aI0
aI-67
ag412
aa(lp662
I0
aI0
aI0
aI0
aI0
aI-68
ag412
aa(lp663
I0
aI0
aI0
aI0
aI0
aI-70
ag412
aa(lp664
I0
aI0
aI0
aI0
aI0
aI-72
ag412
aa(lp665
I0
aI0
aI0
aI0
aI0
aI-69
ag412
aa(lp666
I0
aI0
aI0
aI0
aI0
aI-65
ag412
aa(lp667
I0
aI0
aI0
aI0
aI0
aI-66
aS'Flur'
p668
aa(lp669
I0
aI0
aI0
aI0
aI0
aI-68
ag668
aa(lp670
I0
aI0
aI0
aI0
aI0
aI-66
ag668
aa(lp671
I0
aI0
aI0
aI0
aI0
aI-68
ag668
aa(lp672
I0
aI0
aI0
aI0
aI0
aI-68
ag668
aa(lp673
I0
aI0
aI0
aI0
aI0
aI-64
ag668
aa(lp674
I0
aI0
aI0
aI0
aI0
aI-63
ag668
aa(lp675
I0
aI0
aI0
aI0
aI0
aI-61
ag668
aa(lp676
I0
aI0
aI0
aI0
aI0
aI-60
ag668
aa(lp677
I0
aI0
aI0
aI0
aI0
aI-59
ag668
aa(lp678
I0
aI0
aI0
aI0
aI0
aI-59
ag668
aa(lp679
I0
aI0
aI0
aI0
aI0
aI-60
ag668
aa(lp680
I0
aI0
aI0
aI0
aI0
aI-61
ag668
aa(lp681
I0
aI0
aI0
aI0
aI0
aI-60
ag668
aa(lp682
I0
aI0
aI0
aI0
aI0
aI-60
ag668
aa(lp683
I0
aI0
aI0
aI0
aI0
aI-60
ag668
aa(lp684
I0
aI0
aI0
aI0
aI0
aI-59
ag668
aa(lp685
I0
aI0
aI0
aI0
aI0
aI-60
ag668
aa(lp686
I0
aI0
aI0
aI0
aI0
aI-62
ag668
aa(lp687
I0
aI0
aI0
aI0
aI0
aI-62
ag668
aa(lp688
I0
aI0
aI0
aI0
aI0
aI-63
ag668
aa(lp689
I0
aI0
aI0
aI0
aI0
aI-62
ag668
aa(lp690
I0
aI0
aI0
aI0
aI0
aI-61
ag668
aa(lp691
I0
aI0
aI0
aI0
aI0
aI-60
ag668
aa(lp692
I0
aI0
aI0
aI0
aI0
aI-61
ag668
aa(lp693
I0
aI0
aI0
aI0
aI0
aI-61
ag668
aa(lp694
I0
aI0
aI0
aI0
aI0
aI-61
ag668
aa(lp695
I0
aI0
aI0
aI0
aI0
aI-62
ag668
aa(lp696
I0
aI0
aI0
aI0
aI0
aI-62
ag668
aa(lp697
I0
aI0
aI0
aI0
aI0
aI-66
ag668
aa(lp698
I0
aI0
aI0
aI0
aI0
aI-68
ag668
aa(lp699
I0
aI0
aI0
aI0
aI0
aI-66
ag668
aa(lp700
I0
aI0
aI0
aI0
aI0
aI-68
ag668
aa(lp701
I0
aI0
aI0
aI0
aI0
aI-68
ag668
aa(lp702
I0
aI0
aI0
aI0
aI0
aI-64
ag668
aa(lp703
I0
aI0
aI0
aI0
aI0
aI-63
ag668
aa(lp704
I0
aI0
aI0
aI0
aI0
aI-61
ag668
aa(lp705
I0
aI0
aI0
aI0
aI0
aI-60
ag668
aa(lp706
I0
aI0
aI0
aI0
aI0
aI-59
ag668
aa(lp707
I0
aI0
aI0
aI0
aI0
aI-59
ag668
aa(lp708
I0
aI0
aI0
aI0
aI0
aI-60
ag668
aa(lp709
I0
aI0
aI0
aI0
aI0
aI-61
ag668
aa(lp710
I0
aI0
aI0
aI0
aI0
aI-60
ag668
aa(lp711
I0
aI0
aI0
aI0
aI0
aI-60
ag668
aa(lp712
I0
aI0
aI0
aI0
aI0
aI-60
ag668
aa(lp713
I0
aI0
aI0
aI0
aI0
aI-59
ag668
aa(lp714
I0
aI0
aI0
aI0
aI0
aI-60
ag668
aa(lp715
I0
aI0
aI0
aI0
aI0
aI-62
ag668
aa(lp716
I0
aI0
aI0
aI0
aI0
aI-62
ag668
aa(lp717
I0
aI0
aI0
aI0
aI0
aI-63
ag668
aa(lp718
I0
aI0
aI0
aI0
aI0
aI-62
ag668
aa(lp719
I0
aI0
aI0
aI0
aI0
aI-61
ag668
aa(lp720
I0
aI0
aI0
aI0
aI0
aI-60
ag668
aa(lp721
I0
aI0
aI0
aI0
aI0
aI-61
ag668
aa(lp722
I0
aI0
aI0
aI0
aI0
aI-61
ag668
aa(lp723
I0
aI0
aI0
aI0
aI0
aI-61
ag668
aa(lp724
I0
aI0
aI0
aI0
aI0
aI-62
ag668
aa(lp725
I0
aI0
aI0
aI0
aI0
aI-62
ag668
aa(lp726
I0
aI0
aI0
aI0
aI0
aI-66
ag668
aa(lp727
I0
aI0
aI0
aI0
aI0
aI-68
ag668
aa(lp728
I0
aI0
aI0
aI0
aI0
aI-66
ag668
aa(lp729
I0
aI0
aI0
aI0
aI0
aI-68
ag668
aa(lp730
I0
aI0
aI0
aI0
aI0
aI-68
ag668
aa(lp731
I0
aI0
aI0
aI0
aI0
aI-64
ag668
aa(lp732
I0
aI0
aI0
aI0
aI0
aI-63
ag668
aa(lp733
I0
aI0
aI0
aI0
aI0
aI-61
ag668
aa(lp734
I0
aI0
aI0
aI0
aI0
aI-60
ag668
aa(lp735
I0
aI0
aI0
aI0
aI0
aI-59
ag668
aa(lp736
I0
aI0
aI0
aI0
aI0
aI-59
ag668
aa(lp737
I0
aI0
aI0
aI0
aI0
aI-60
ag668
aa(lp738
I0
aI0
aI0
aI0
aI0
aI-61
ag668
aa(lp739
I0
aI0
aI0
aI0
aI0
aI-60
ag668
aa(lp740
I0
aI0
aI0
aI0
aI0
aI-60
ag668
aa(lp741
I0
aI0
aI0
aI0
aI0
aI-60
ag668
aa(lp742
I0
aI0
aI0
aI0
aI0
aI-59
ag668
aa(lp743
I0
aI0
aI0
aI0
aI0
aI-60
ag668
aa(lp744
I0
aI0
aI0
aI0
aI0
aI-62
ag668
aa(lp745
I0
aI0
aI0
aI0
aI0
aI-62
ag668
aa(lp746
I0
aI0
aI0
aI0
aI0
aI-63
ag668
aa(lp747
I0
aI0
aI0
aI0
aI0
aI-62
ag668
aa(lp748
I0
aI0
aI0
aI0
aI0
aI-61
ag668
aa(lp749
I0
aI0
aI0
aI0
aI0
aI-60
ag668
aa(lp750
I0
aI0
aI0
aI0
aI0
aI-61
ag668
aa(lp751
I0
aI0
aI0
aI0
aI0
aI-61
ag668
aa(lp752
I0
aI0
aI0
aI0
aI0
aI-61
ag668
aa(lp753
I0
aI0
aI0
aI0
aI0
aI-62
ag668
aa(lp754
I0
aI0
aI0
aI0
aI0
aI-62
ag668
aa(lp755
I0
aI0
aI0
aI0
aI0
aI-66
ag668
aa(lp756
I0
aI0
aI0
aI0
aI0
aI-68
ag668
aa(lp757
I0
aI0
aI0
aI0
aI0
aI-66
ag668
aa(lp758
I0
aI0
aI0
aI0
aI0
aI-68
ag668
aa(lp759
I0
aI0
aI0
aI0
aI0
aI-68
ag668
aa(lp760
I0
aI0
aI0
aI0
aI0
aI-64
ag668
aa(lp761
I0
aI0
aI0
aI0
aI0
aI-63
ag668
aa(lp762
I0
aI0
aI0
aI0
aI0
aI-61
ag668
aa(lp763
I0
aI0
aI0
aI0
aI0
aI-60
ag668
aa(lp764
I0
aI0
aI0
aI0
aI0
aI-59
ag668
aa(lp765
I0
aI0
aI0
aI0
aI0
aI-59
ag668
aa(lp766
I0
aI0
aI0
aI0
aI0
aI-60
ag668
aa(lp767
I0
aI0
aI0
aI0
aI0
aI-61
ag668
aa(lp768
I0
aI0
aI0
aI0
aI0
aI-60
ag668
aa(lp769
I0
aI0
aI0
aI0
aI0
aI-60
ag668
aa(lp770
I0
aI0
aI0
aI0
aI0
aI-60
ag668
aa(lp771
I0
aI0
aI0
aI0
aI0
aI-59
ag668
aa(lp772
I0
aI0
aI0
aI0
aI0
aI-60
ag668
aa(lp773
I0
aI0
aI0
aI0
aI0
aI-62
ag668
aa(lp774
I0
aI0
aI0
aI0
aI0
aI-62
ag668
aa(lp775
I0
aI0
aI0
aI0
aI0
aI-63
ag668
aa(lp776
I0
aI0
aI0
aI0
aI0
aI-62
ag668
aa(lp777
I0
aI0
aI0
aI0
aI0
aI-61
ag668
aa(lp778
I0
aI0
aI0
aI0
aI0
aI-60
ag668
aa(lp779
I0
aI0
aI0
aI0
aI0
aI-61
ag668
aa(lp780
I0
aI0
aI0
aI0
aI0
aI-61
ag668
aa(lp781
I0
aI0
aI0
aI0
aI0
aI-61
ag668
aa(lp782
I0
aI0
aI0
aI0
aI0
aI-62
ag668
aa(lp783
I0
aI0
aI0
aI0
aI0
aI-62
ag668
aa(lp784
I0
aI0
aI0
aI0
aI0
aI-66
ag668
aa(lp785
I0
aI0
aI0
aI0
aI0
aI-68
ag668
aa(lp786
I0
aI0
aI0
aI0
aI0
aI-66
ag668
aa(lp787
I0
aI0
aI0
aI0
aI0
aI-68
ag668
aa(lp788
I0
aI0
aI0
aI0
aI0
aI-68
ag668
aa(lp789
I0
aI0
aI0
aI0
aI0
aI-64
ag668
aa(lp790
I0
aI0
aI0
aI0
aI0
aI-63
ag668
aa(lp791
I0
aI0
aI0
aI0
aI0
aI-61
ag668
aa(lp792
I0
aI0
aI0
aI0
aI0
aI-60
ag668
aa(lp793
I0
aI0
aI0
aI0
aI0
aI-59
ag668
aa(lp794
I0
aI0
aI0
aI0
aI0
aI-59
ag668
aa(lp795
I0
aI0
aI0
aI0
aI0
aI-60
ag668
aa(lp796
I0
aI0
aI0
aI0
aI0
aI-61
ag668
aa(lp797
I0
aI0
aI0
aI0
aI0
aI-60
ag668
aa(lp798
I0
aI0
aI0
aI0
aI0
aI-60
ag668
aa(lp799
I0
aI0
aI0
aI0
aI0
aI-60
ag668
aa(lp800
I0
aI0
aI0
aI0
aI0
aI-59
ag668
aa(lp801
I0
aI0
aI0
aI0
aI0
aI-60
ag668
aa(lp802
I0
aI0
aI0
aI0
aI0
aI-62
ag668
aa(lp803
I0
aI0
aI0
aI0
aI0
aI-62
ag668
aa(lp804
I0
aI0
aI0
aI0
aI0
aI-63
ag668
aa(lp805
I0
aI0
aI0
aI0
aI0
aI-62
ag668
aa(lp806
I0
aI0
aI0
aI0
aI0
aI-61
ag668
aa(lp807
I0
aI0
aI0
aI0
aI0
aI-60
ag668
aa(lp808
I0
aI0
aI0
aI0
aI0
aI-61
ag668
aa(lp809
I0
aI0
aI0
aI0
aI0
aI-61
ag668
aa(lp810
I0
aI0
aI0
aI0
aI0
aI-61
ag668
aa(lp811
I0
aI0
aI0
aI0
aI0
aI-62
ag668
aa(lp812
I0
aI0
aI0
aI0
aI0
aI-62
ag668
aa(lp813
I0
aI0
aI0
aI0
aI0
aI-66
ag668
aa(lp814
I0
aI0
aI0
aI0
aI0
aI-68
ag668
aa(lp815
I0
aI0
aI0
aI0
aI0
aI-66
ag668
aa(lp816
I0
aI0
aI0
aI0
aI0
aI-68
ag668
aa(lp817
I0
aI0
aI0
aI0
aI0
aI-68
ag668
aa(lp818
I0
aI0
aI0
aI0
aI0
aI-64
ag668
aa(lp819
I0
aI0
aI0
aI0
aI0
aI-63
ag668
aa(lp820
I0
aI0
aI0
aI0
aI0
aI-61
ag668
aa(lp821
I0
aI0
aI0
aI0
aI0
aI-60
ag668
aa(lp822
I0
aI0
aI0
aI0
aI0
aI-59
ag668
aa(lp823
I0
aI0
aI0
aI0
aI0
aI-59
ag668
aa(lp824
I0
aI0
aI0
aI0
aI0
aI-60
ag668
aa(lp825
I0
aI0
aI0
aI0
aI0
aI-61
ag668
aa(lp826
I0
aI0
aI0
aI0
aI0
aI-60
ag668
aa(lp827
I0
aI0
aI0
aI0
aI0
aI-60
ag668
aa(lp828
I0
aI0
aI0
aI0
aI0
aI-60
ag668
aa(lp829
I0
aI0
aI0
aI0
aI0
aI-59
ag668
aa(lp830
I0
aI0
aI0
aI0
aI0
aI-60
ag668
aa(lp831
I0
aI0
aI0
aI0
aI0
aI-62
ag668
aa(lp832
I0
aI0
aI0
aI0
aI0
aI-62
ag668
aa(lp833
I0
aI0
aI0
aI0
aI0
aI-63
ag668
aa(lp834
I0
aI0
aI0
aI0
aI0
aI-62
ag668
aa(lp835
I0
aI0
aI0
aI0
aI0
aI-61
ag668
aa(lp836
I0
aI0
aI0
aI0
aI0
aI-60
ag668
aa(lp837
I0
aI0
aI0
aI0
aI0
aI-61
ag668
aa(lp838
I0
aI0
aI0
aI0
aI0
aI-61
ag668
aa(lp839
I0
aI0
aI0
aI0
aI0
aI-61
ag668
aa(lp840
I0
aI0
aI0
aI0
aI0
aI-62
ag668
aa(lp841
I0
aI0
aI0
aI0
aI0
aI-62
ag668
aa(lp842
I0
aI0
aI0
aI0
aI0
aI-66
ag668
aa(lp843
I0
aI0
aI0
aI0
aI0
aI-68
ag668
aa(lp844
I0
aI0
aI0
aI0
aI0
aI-66
ag668
aa(lp845
I0
aI0
aI0
aI0
aI0
aI-68
ag668
aa(lp846
I0
aI0
aI0
aI0
aI0
aI-68
ag668
aa(lp847
I0
aI0
aI0
aI0
aI0
aI-64
ag668
aa(lp848
I0
aI0
aI0
aI0
aI0
aI-63
ag668
aa(lp849
I0
aI0
aI0
aI0
aI0
aI-61
ag668
aa(lp850
I0
aI0
aI0
aI0
aI0
aI-60
ag668
aa(lp851
I0
aI0
aI0
aI0
aI0
aI-59
ag668
aa(lp852
I0
aI0
aI0
aI0
aI0
aI-59
ag668
aa(lp853
I0
aI0
aI0
aI0
aI0
aI-60
ag668
aa(lp854
I0
aI0
aI0
aI0
aI0
aI-61
ag668
aa(lp855
I0
aI0
aI0
aI0
aI0
aI-60
ag668
aa(lp856
I0
aI0
aI0
aI0
aI0
aI-60
ag668
aa(lp857
I0
aI0
aI0
aI0
aI0
aI-60
ag668
aa(lp858
I0
aI0
aI0
aI0
aI0
aI-59
ag668
aa(lp859
I0
aI0
aI0
aI0
aI0
aI-60
ag668
aa(lp860
I0
aI0
aI0
aI0
aI0
aI-62
ag668
aa(lp861
I0
aI0
aI0
aI0
aI0
aI-62
ag668
aa(lp862
I0
aI0
aI0
aI0
aI0
aI-63
ag668
aa(lp863
I0
aI0
aI0
aI0
aI0
aI-62
ag668
aa(lp864
I0
aI0
aI0
aI0
aI0
aI-61
ag668
aa(lp865
I0
aI0
aI0
aI0
aI0
aI-60
ag668
aa(lp866
I0
aI0
aI0
aI0
aI0
aI-61
ag668
aa(lp867
I0
aI0
aI0
aI0
aI0
aI-61
ag668
aa(lp868
I0
aI0
aI0
aI0
aI0
aI-61
ag668
aa(lp869
I0
aI0
aI0
aI0
aI0
aI-62
ag668
aa(lp870
I0
aI0
aI0
aI0
aI0
aI-62
ag668
aa(lp871
I0
aI0
aI0
aI0
aI0
aI-66
ag668
aa(lp872
I0
aI0
aI0
aI0
aI0
aI-68
ag668
aa(lp873
I0
aI0
aI0
aI0
aI0
aI-66
ag668
aa(lp874
I0
aI0
aI0
aI0
aI0
aI-68
ag668
aa(lp875
I0
aI0
aI0
aI0
aI0
aI-68
ag668
aa(lp876
I0
aI0
aI0
aI0
aI0
aI-64
ag668
aa(lp877
I0
aI0
aI0
aI0
aI0
aI-63
ag668
aa(lp878
I0
aI0
aI0
aI0
aI0
aI-61
ag668
aa(lp879
I0
aI0
aI0
aI0
aI0
aI-60
ag668
aa(lp880
I0
aI0
aI0
aI0
aI0
aI-59
ag668
aa(lp881
I0
aI0
aI0
aI0
aI0
aI-59
ag668
aa(lp882
I0
aI0
aI0
aI0
aI0
aI-60
ag668
aa(lp883
I0
aI0
aI0
aI0
aI0
aI-61
ag668
aa(lp884
I0
aI0
aI0
aI0
aI0
aI-60
ag668
aa(lp885
I0
aI0
aI0
aI0
aI0
aI-60
ag668
aa(lp886
I0
aI0
aI0
aI0
aI0
aI-60
ag668
aa(lp887
I0
aI0
aI0
aI0
aI0
aI-59
ag668
aa(lp888
I0
aI0
aI0
aI0
aI0
aI-60
ag668
aa(lp889
I0
aI0
aI0
aI0
aI0
aI-62
ag668
aa(lp890
I0
aI0
aI0
aI0
aI0
aI-62
ag668
aa(lp891
I0
aI0
aI0
aI0
aI0
aI-63
ag668
aa(lp892
I0
aI0
aI0
aI0
aI0
aI-62
ag668
aa(lp893
I0
aI0
aI0
aI0
aI0
aI-61
ag668
aa(lp894
I0
aI0
aI0
aI0
aI0
aI-60
ag668
aa(lp895
I0
aI0
aI0
aI0
aI0
aI-61
ag668
aa(lp896
I0
aI0
aI0
aI0
aI0
aI-61
ag668
aa(lp897
I0
aI0
aI0
aI0
aI0
aI-61
ag668
aa(lp898
cnumpy.core.multiarray
scalar
p899
(cnumpy
dtype
p900
(S'f8'
I0
I1
tRp901
(I3
S'<'
NNNI-1
I-1
I0
tbS'\x00\x00\x00\x00\x00\x00\xf8\xff'
tRp902
ag899
(g901
S'\x00\x00\x00\x00\x00\x00\xf8\xff'
tRp903
ag899
(g901
S'\x00\x00\x00\x00\x00\x00O\xc0'
tRp904
aI0
aI0
aI-62
ag668
aa(lp905
g899
(g901
S'\x00\x00\x00\x00\x00\x00\xf8\xff'
tRp906
ag899
(g901
S'\x00\x00\x00\x00\x00\x00\xf8\xff'
tRp907
ag899
(g901
S'\x00\x00\x00\x00\x00\x00O\xc0'
tRp908
aI0
aI0
aI-62
ag668
aa(lp909
g899
(g901
S'\x00\x00\x00\x00\x00\x00\xf8\xff'
tRp910
ag899
(g901
S'\x00\x00\x00\x00\x00\x00\xf8\xff'
tRp911
ag899
(g901
S'\x11\x11\x11\x11\x11\x11O\xc0'
tRp912
aI0
aI0
aI-66
ag668
aa(lp913
g899
(g901
S'\x00\x00\x00\x00\x00\x00\xf8\xff'
tRp914
ag899
(g901
S'\x00\x00\x00\x00\x00\x00\xf8\xff'
tRp915
ag899
(g901
S'\xab\xaa\xaa\xaa\xaa*O\xc0'
tRp916
aI0
aI0
aI-68
ag668
aa(lp917
g899
(g901
S'\x00\x00\x00\x00\x00\x00\xf8\xff'
tRp918
ag899
(g901
S'\x00\x00\x00\x00\x00\x00\xf8\xff'
tRp919
ag899
(g901
S'\xbc\xbb\xbb\xbb\xbb;O\xc0'
tRp920
aI0
aI0
aI-66
ag668
aa(lp921
g899
(g901
S'\x00\x00\x00\x00\x00\x00\xf8\xff'
tRp922
ag899
(g901
S'\x00\x00\x00\x00\x00\x00\xf8\xff'
tRp923
ag899
(g901
S'UUUUUUO\xc0'
tRp924
aI0
aI0
aI-68
ag668
aa(lp925
g899
(g901
S'\x00\x00\x00\x00\x00\x00\xf8\xff'
tRp926
ag899
(g901
S'\x00\x00\x00\x00\x00\x00\xf8\xff'
tRp927
ag899
(g901
S'\xef\xee\xee\xee\xeenO\xc0'
tRp928
aI0
aI0
aI-68
ag668
aa(lp929
g899
(g901
S'\x00\x00\x00\x00\x00\x00\xf8\xff'
tRp930
ag899
(g901
S'\x00\x00\x00\x00\x00\x00\xf8\xff'
tRp931
ag899
(g901
S'wwwwwwO\xc0'
tRp932
aI0
aI0
aI-64
ag668
aa(lp933
g899
(g901
S'\x00\x00\x00\x00\x00\x00\xf8\xff'
tRp934
ag899
(g901
S'\x00\x00\x00\x00\x00\x00\xf8\xff'
tRp935
ag899
(g901
S'\xbc\xbb\xbb\xbb\xbb{O\xc0'
tRp936
aI0
aI0
aI-63
ag668
aa(lp937
g899
(g901
S'\x00\x00\x00\x00\x00\x00\xf8\xff'
tRp938
ag899
(g901
S'\x00\x00\x00\x00\x00\x00\xf8\xff'
tRp939
ag899
(g901
S'wwwwwwO\xc0'
tRp940
aI0
aI0
aI-61
ag668
aa(lp941
g899
(g901
S'\x00\x00\x00\x00\x00\x00\xf8\xff'
tRp942
ag899
(g901
S'\x00\x00\x00\x00\x00\x00\xf8\xff'
tRp943
ag899
(g901
S'\xef\xee\xee\xee\xeenO\xc0'
tRp944
aI0
aI0
aI-60
ag668
aa(lp945
g899
(g901
S'\x00\x00\x00\x00\x00\x00\xf8\xff'
tRp946
ag899
(g901
S'\x00\x00\x00\x00\x00\x00\xf8\xff'
tRp947
ag899
(g901
S'"""""bO\xc0'
tRp948
aI0
aI0
aI-59
ag668
aa(lp949
g899
(g901
S'\x00\x00\x00\x00\x00\x00\xf8\xff'
tRp950
ag899
(g901
S'\x00\x00\x00\x00\x00\x00\xf8\xff'
tRp951
ag899
(g901
S'UUUUUUO\xc0'
tRp952
aI0
aI0
aI-59
ag668
aa(lp953
g899
(g901
S'\x00\x00\x00\x00\x00\x00\xf8\xff'
tRp954
ag899
(g901
S'\x00\x00\x00\x00\x00\x00\xf8\xff'
tRp955
ag899
(g901
S'\xcd\xcc\xcc\xcc\xccLO\xc0'
tRp956
aI0
aI0
aI-60
ag668
aa(lp957
g899
(g901
S'\x00\x00\x00\x00\x00\x00\xf8\xff'
tRp958
ag899
(g901
S'\x00\x00\x00\x00\x00\x00\xf8\xff'
tRp959
ag899
(g901
S'\x89\x88\x88\x88\x88HO\xc0'
tRp960
aI0
aI0
aI-61
ag668
aa(lp961
g899
(g901
S'\x00\x00\x00\x00\x00\x00\xf8\xff'
tRp962
ag899
(g901
S'\x00\x00\x00\x00\x00\x00\xf8\xff'
tRp963
ag899
(g901
S'\x00\x00\x00\x00\x00@O\xc0'
tRp964
aI0
aI0
aI-60
ag668
aa(lp965
g899
(g901
S'\x00\x00\x00\x00\x00\x00\xf8\xff'
tRp966
ag899
(g901
S'\x00\x00\x00\x00\x00\x00\xf8\xff'
tRp967
ag899
(g901
S'wwwww7O\xc0'
tRp968
aI0
aI0
aI-60
ag668
aa(lp969
g899
(g901
S'\x00\x00\x00\x00\x00\x00\xf8\xff'
tRp970
ag899
(g901
S'\x00\x00\x00\x00\x00\x00\xf8\xff'
tRp971
ag899
(g901
S'\xef\xee\xee\xee\xee.O\xc0'
tRp972
aI0
aI0
aI-60
ag668
aa(lp973
g899
(g901
S'\x00\x00\x00\x00\x00\x00\xf8\xff'
tRp974
ag899
(g901
S'\x00\x00\x00\x00\x00\x00\xf8\xff'
tRp975
ag899
(g901
S'""""""O\xc0'
tRp976
aI0
aI0
aI-59
ag668
aa(lp977
g899
(g901
S'\x00\x00\x00\x00\x00\x00\xf8\xff'
tRp978
ag899
(g901
S'\x00\x00\x00\x00\x00\x00\xf8\xff'
tRp979
ag899
(g901
S'\x9a\x99\x99\x99\x99\x19O\xc0'
tRp980
aI0
aI0
aI-60
ag668
aa(lp981
g899
(g901
S'\x00\x00\x00\x00\x00\x00\xf8\xff'
tRp982
ag899
(g901
S'\x00\x00\x00\x00\x00\x00\xf8\xff'
tRp983
ag899
(g901
S'\x9a\x99\x99\x99\x99\x19O\xc0'
tRp984
aI0
aI0
aI-62
ag668
aa(lp985
g899
(g901
S'\x00\x00\x00\x00\x00\x00\xf8\xff'
tRp986
ag899
(g901
S'\x00\x00\x00\x00\x00\x00\xf8\xff'
tRp987
ag899
(g901
S'\x9a\x99\x99\x99\x99\x19O\xc0'
tRp988
aI0
aI0
aI-62
ag668
aa(lp989
g899
(g901
S'\x00\x00\x00\x00\x00\x00\xf8\xff'
tRp990
ag899
(g901
S'\x00\x00\x00\x00\x00\x00\xf8\xff'
tRp991
ag899
(g901
S'\xde\xdd\xdd\xdd\xdd\x1dO\xc0'
tRp992
aI0
aI0
aI-63
ag668
aa(lp993
g899
(g901
S'\x00\x00\x00\x00\x00\x00\xf8\xff'
tRp994
ag899
(g901
S'\x00\x00\x00\x00\x00\x00\xf8\xff'
tRp995
ag899
(g901
S'\xde\xdd\xdd\xdd\xdd\x1dO\xc0'
tRp996
aI0
aI0
aI-62
ag668
aa(lp997
g899
(g901
S'\x00\x00\x00\x00\x00\x00\xf8\xff'
tRp998
ag899
(g901
S'\x00\x00\x00\x00\x00\x00\xf8\xff'
tRp999
ag899
(g901
S'\x9a\x99\x99\x99\x99\x19O\xc0'
tRp1000
aI0
aI0
aI-61
ag668
aa(lp1001
g899
(g901
S'\x00\x00\x00\x00\x00\x00\xf8\xff'
tRp1002
ag899
(g901
S'\x00\x00\x00\x00\x00\x00\xf8\xff'
tRp1003
ag899
(g901
S'\x11\x11\x11\x11\x11\x11O\xc0'
tRp1004
aI0
aI0
aI-60
ag668
aa(lp1005
g899
(g901
S'\x00\x00\x00\x00\x00\x00\xf8\xff'
tRp1006
ag899
(g901
S'\x00\x00\x00\x00\x00\x00\xf8\xff'
tRp1007
ag899
(g901
S'\xcd\xcc\xcc\xcc\xcc\x0cO\xc0'
tRp1008
aI0
aI0
aI-61
ag668
aa(lp1009
g899
(g901
S'\x00\x00\x00\x00\x00\x00\xf8\xff'
tRp1010
ag899
(g901
S'\x00\x00\x00\x00\x00\x00\xf8\xff'
tRp1011
ag899
(g901
S'\x89\x88\x88\x88\x88\x08O\xc0'
tRp1012
aI0
aI0
aI-61
ag668
aa(lp1013
g899
(g901
S'\x00\x00\x00\x00\x00\x00\xf8\xff'
tRp1014
ag899
(g901
S'\x00\x00\x00\x00\x00\x00\xf8\xff'
tRp1015
ag899
(g901
S'DDDDD\x04O\xc0'
tRp1016
aI0
aI0
aI-61
ag668
aa(lp1017
g899
(g901
S'\x00\x00\x00\x00\x00\x00\xf8\xff'
tRp1018
ag899
(g901
S'\x00\x00\x00\x00\x00\x00\xf8\xff'
tRp1019
ag899
(g901
S'DDDDD\x04O\xc0'
tRp1020
aI0
aI0
aI-62
ag668
aa(lp1021
g899
(g901
S'\x00\x00\x00\x00\x00\x00\xf8\xff'
tRp1022
ag899
(g901
S'\x00\x00\x00\x00\x00\x00\xf8\xff'
tRp1023
ag899
(g901
S'DDDDD\x04O\xc0'
tRp1024
aI0
aI0
aI-62
ag668
aa(lp1025
g899
(g901
S'\x00\x00\x00\x00\x00\x00\xf8\xff'
tRp1026
ag899
(g901
S'\x00\x00\x00\x00\x00\x00\xf8\xff'
tRp1027
ag899
(g901
S'UUUUU\x15O\xc0'
tRp1028
aI0
aI0
aI-66
ag668
aa(lp1029
g899
(g901
S'\x00\x00\x00\x00\x00\x00\xf8\xff'
tRp1030
ag899
(g901
S'\x00\x00\x00\x00\x00\x00\xf8\xff'
tRp1031
ag899
(g901
S'\xde\xdd\xdd\xdd\xdd\x1dO\xc0'
tRp1032
aI0
aI0
aI-68
ag668
aa(lp1033
g899
(g901
S'\x00\x00\x00\x00\x00\x00\xf8\xff'
tRp1034
ag899
(g901
S'\x00\x00\x00\x00\x00\x00\xf8\xff'
tRp1035
ag899
(g901
S'UUUUU\x15O\xc0'
tRp1036
aI0
aI0
aI-66
ag668
aa(lp1037
g899
(g901
S'\x00\x00\x00\x00\x00\x00\xf8\xff'
tRp1038
ag899
(g901
S'\x00\x00\x00\x00\x00\x00\xf8\xff'
tRp1039
ag899
(g901
S'\xde\xdd\xdd\xdd\xdd\x1dO\xc0'
tRp1040
aI0
aI0
aI-68
ag668
aa(lp1041
g899
(g901
S'\x00\x00\x00\x00\x00\x00\xf8\xff'
tRp1042
ag899
(g901
S'\x00\x00\x00\x00\x00\x00\xf8\xff'
tRp1043
ag899
(g901
S'\xde\xdd\xdd\xdd\xdd\x1dO\xc0'
tRp1044
aI0
aI0
aI-68
ag668
aa(lp1045
g899
(g901
S'\x00\x00\x00\x00\x00\x00\xf8\xff'
tRp1046
ag899
(g901
S'\x00\x00\x00\x00\x00\x00\xf8\xff'
tRp1047
ag899
(g901
S'\xcd\xcc\xcc\xcc\xcc\x0cO\xc0'
tRp1048
aI0
aI0
aI-64
ag668
aa(lp1049
g899
(g901
S'\x00\x00\x00\x00\x00\x00\xf8\xff'
tRp1050
ag899
(g901
S'\x00\x00\x00\x00\x00\x00\xf8\xff'
tRp1051
ag899
(g901
S'\x89\x88\x88\x88\x88\x08O\xc0'
tRp1052
aI0
aI0
aI-63
ag668
aa(lp1053
g899
(g901
S'\x00\x00\x00\x00\x00\x00\xf8\xff'
tRp1054
ag899
(g901
S'\x00\x00\x00\x00\x00\x00\xf8\xff'
tRp1055
ag899
(g901
S'\x00\x00\x00\x00\x00\x00O\xc0'
tRp1056
aI0
aI0
aI-61
ag668
aa(lp1057
g899
(g901
S'\x00\x00\x00\x00\x00\x00\xf8\xff'
tRp1058
ag899
(g901
S'\x00\x00\x00\x00\x00\x00\xf8\xff'
tRp1059
ag899
(g901
S'\xbc\xbb\xbb\xbb\xbb\xfbN\xc0'
tRp1060
aI0
aI0
aI-60
ag668
aa(lp1061
g899
(g901
S'\x00\x00\x00\x00\x00\x00\xf8\xff'
tRp1062
ag899
(g901
S'\x00\x00\x00\x00\x00\x00\xf8\xff'
tRp1063
ag899
(g901
S'wwwww\xf7N\xc0'
tRp1064
aI0
aI0
aI-59
ag668
aa(lp1065
g899
(g901
S'\x00\x00\x00\x00\x00\x00\xf8\xff'
tRp1066
ag899
(g901
S'\x00\x00\x00\x00\x00\x00\xf8\xff'
tRp1067
ag899
(g901
S'wwwww\xf7N\xc0'
tRp1068
aI0
aI0
aI-59
ag668
aa(lp1069
g899
(g901
S'\x00\x00\x00\x00\x00\x00\xf8\xff'
tRp1070
ag899
(g901
S'\x00\x00\x00\x00\x00\x00\xf8\xff'
tRp1071
ag899
(g901
S'\xbc\xbb\xbb\xbb\xbb\xfbN\xc0'
tRp1072
aI0
aI0
aI-60
ag668
aa(lp1073
g899
(g901
S'\x00\x00\x00\x00\x00\x00\xf8\xff'
tRp1074
ag899
(g901
S'\x00\x00\x00\x00\x00\x00\xf8\xff'
tRp1075
ag899
(g901
S'\x00\x00\x00\x00\x00\x00O\xc0'
tRp1076
aI0
aI0
aI-61
ag668
aa(lp1077
g899
(g901
S'\x00\x00\x00\x00\x00\x00\xf8\xff'
tRp1078
ag899
(g901
S'\x00\x00\x00\x00\x00\x00\xf8\xff'
tRp1079
ag899
(g901
S'\xbc\xbb\xbb\xbb\xbb\xfbN\xc0'
tRp1080
aI0
aI0
aI-60
ag668
aa(lp1081
g899
(g901
S'\x00\x00\x00\x00\x00\x00\xf8\xff'
tRp1082
ag899
(g901
S'\x00\x00\x00\x00\x00\x00\xf8\xff'
tRp1083
ag899
(g901
S'\xbc\xbb\xbb\xbb\xbb\xfbN\xc0'
tRp1084
aI0
aI0
aI-60
ag668
aa(lp1085
g899
(g901
S'\x00\x00\x00\x00\x00\x00\xf8\xff'
tRp1086
ag899
(g901
S'\x00\x00\x00\x00\x00\x00\xf8\xff'
tRp1087
ag899
(g901
S'\xbc\xbb\xbb\xbb\xbb\xfbN\xc0'
tRp1088
aI0
aI0
aI-60
ag668
aa(lp1089
g899
(g901
S'\x00\x00\x00\x00\x00\x00\xf8\xff'
tRp1090
ag899
(g901
S'\x00\x00\x00\x00\x00\x00\xf8\xff'
tRp1091
ag899
(g901
S'wwwww\xf7N\xc0'
tRp1092
aI0
aI0
aI-59
ag668
aa(lp1093
g899
(g901
S'\x00\x00\x00\x00\x00\x00\xf8\xff'
tRp1094
ag899
(g901
S'\x00\x00\x00\x00\x00\x00\xf8\xff'
tRp1095
ag899
(g901
S'\xbc\xbb\xbb\xbb\xbb\xfbN\xc0'
tRp1096
aI0
aI0
aI-60
ag668
aa(lp1097
g899
(g901
S'\x00\x00\x00\x00\x00\x00\xf8\xff'
tRp1098
ag899
(g901
S'\x00\x00\x00\x00\x00\x00\xf8\xff'
tRp1099
ag899
(g901
S'DDDDD\x04O\xc0'
tRp1100
aI0
aI0
aI-62
ag668
aa(lp1101
g899
(g901
S'\x00\x00\x00\x00\x00\x00\xf8\xff'
tRp1102
ag899
(g901
S'\x00\x00\x00\x00\x00\x00\xf8\xff'
tRp1103
ag899
(g901
S'DDDDD\x04O\xc0'
tRp1104
aI0
aI0
aI-62
ag668
aa(lp1105
g899
(g901
S'\x00\x00\x00\x00\x00\x00\xf8\xff'
tRp1106
ag899
(g901
S'\x00\x00\x00\x00\x00\x00\xf8\xff'
tRp1107
ag899
(g901
S'\x89\x88\x88\x88\x88\x08O\xc0'
tRp1108
aI0
aI0
aI-63
ag668
aa(lp1109
g899
(g901
S'\x00\x00\x00\x00\x00\x00\xf8\xff'
tRp1110
ag899
(g901
S'\x00\x00\x00\x00\x00\x00\xf8\xff'
tRp1111
ag899
(g901
S'DDDDD\x04O\xc0'
tRp1112
aI0
aI0
aI-62
ag668
aa(lp1113
g899
(g901
S'\x00\x00\x00\x00\x00\x00\xf8\xff'
tRp1114
ag899
(g901
S'\x00\x00\x00\x00\x00\x00\xf8\xff'
tRp1115
ag899
(g901
S'\x00\x00\x00\x00\x00\x00O\xc0'
tRp1116
aI0
aI0
aI-61
ag668
aa(lp1117
g899
(g901
S'\x00\x00\x00\x00\x00\x00\xf8\xff'
tRp1118
ag899
(g901
S'\x00\x00\x00\x00\x00\x00\xf8\xff'
tRp1119
ag899
(g901
S'\xbc\xbb\xbb\xbb\xbb\xfbN\xc0'
tRp1120
aI0
aI0
aI-60
ag668
aa(lp1121
g899
(g901
S'\x00\x00\x00\x00\x00\x00\xf8\xff'
tRp1122
ag899
(g901
S'\x00\x00\x00\x00\x00\x00\xf8\xff'
tRp1123
ag899
(g901
S'\x00\x00\x00\x00\x00\x00O\xc0'
tRp1124
aI0
aI0
aI-61
ag668
aa(lp1125
g899
(g901
S'\x00\x00\x00\x00\x00\x00\xf8\xff'
tRp1126
ag899
(g901
S'\x00\x00\x00\x00\x00\x00\xf8\xff'
tRp1127
ag899
(g901
S'\x00\x00\x00\x00\x00\x00O\xc0'
tRp1128
aI0
aI0
aI-61
ag668
aa(lp1129
g899
(g901
S'\x00\x00\x00\x00\x00\x00\xf8\xff'
tRp1130
ag899
(g901
S'\x00\x00\x00\x00\x00\x00\xf8\xff'
tRp1131
ag899
(g901
S'\x00\x00\x00\x00\x00\x00O\xc0'
tRp1132
aI0
aI0
aI-61
ag668
aa(lp1133
g899
(g901
S'\x00\x00\x00\x00\x00\x00\xf8\xff'
tRp1134
ag899
(g901
S'\x00\x00\x00\x00\x00\x00\xf8\xff'
tRp1135
ag899
(g901
S'DDDDD\x04O\xc0'
tRp1136
aI0
aI0
aI-62
ag668
aa(lp1137
g899
(g901
S'\x00\x00\x00\x00\x00\x00\xf8\xff'
tRp1138
ag899
(g901
S'\x00\x00\x00\x00\x00\x00\xf8\xff'
tRp1139
ag899
(g901
S'DDDDD\x04O\xc0'
tRp1140
aI0
aI0
aI-62
ag668
aa(lp1141
g899
(g901
S'\x00\x00\x00\x00\x00\x00\xf8\xff'
tRp1142
ag899
(g901
S'\x00\x00\x00\x00\x00\x00\xf8\xff'
tRp1143
ag899
(g901
S'UUUUU\x15O\xc0'
tRp1144
aI0
aI0
aI-66
ag668
aa(lp1145
g899
(g901
S'\x00\x00\x00\x00\x00\x00\xf8\xff'
tRp1146
ag899
(g901
S'\x00\x00\x00\x00\x00\x00\xf8\xff'
tRp1147
ag899
(g901
S'\xde\xdd\xdd\xdd\xdd\x1dO\xc0'
tRp1148
aI0
aI0
aI-68
ag668
aa(lp1149
g899
(g901
S'\x00\x00\x00\x00\x00\x00\xf8\xff'
tRp1150
ag899
(g901
S'\x00\x00\x00\x00\x00\x00\xf8\xff'
tRp1151
ag899
(g901
S'UUUUU\x15O\xc0'
tRp1152
aI0
aI0
aI-66
ag668
aa(lp1153
g899
(g901
S'\x00\x00\x00\x00\x00\x00\xf8\xff'
tRp1154
ag899
(g901
S'\x00\x00\x00\x00\x00\x00\xf8\xff'
tRp1155
ag899
(g901
S'\xde\xdd\xdd\xdd\xdd\x1dO\xc0'
tRp1156
aI0
aI0
aI-68
ag668
aa(lp1157
g899
(g901
S'\x00\x00\x00\x00\x00\x00\xf8\xff'
tRp1158
ag899
(g901
S'\x00\x00\x00\x00\x00\x00\xf8\xff'
tRp1159
ag899
(g901
S'\xde\xdd\xdd\xdd\xdd\x1dO\xc0'
tRp1160
aI0
aI0
aI-68
ag668
aa(lp1161
g899
(g901
S'\x00\x00\x00\x00\x00\x00\xf8\xff'
tRp1162
ag899
(g901
S'\x00\x00\x00\x00\x00\x00\xf8\xff'
tRp1163
ag899
(g901
S'\xcd\xcc\xcc\xcc\xcc\x0cO\xc0'
tRp1164
aI0
aI0
aI-64
ag668
aa(lp1165
g899
(g901
S'\x00\x00\x00\x00\x00\x00\xf8\xff'
tRp1166
ag899
(g901
S'\x00\x00\x00\x00\x00\x00\xf8\xff'
tRp1167
ag899
(g901
S'\x89\x88\x88\x88\x88\x08O\xc0'
tRp1168
aI0
aI0
aI-63
ag668
aa(lp1169
g899
(g901
S'\x00\x00\x00\x00\x00\x00\xf8\xff'
tRp1170
ag899
(g901
S'\x00\x00\x00\x00\x00\x00\xf8\xff'
tRp1171
ag899
(g901
S'\x00\x00\x00\x00\x00\x00O\xc0'
tRp1172
aI0
aI0
aI-61
ag668
aa(lp1173
g899
(g901
S'\x00\x00\x00\x00\x00\x00\xf8\xff'
tRp1174
ag899
(g901
S'\x00\x00\x00\x00\x00\x00\xf8\xff'
tRp1175
ag899
(g901
S'\xbc\xbb\xbb\xbb\xbb\xfbN\xc0'
tRp1176
aI0
aI0
aI-60
ag668
aa(lp1177
g899
(g901
S'\x00\x00\x00\x00\x00\x00\xf8\xff'
tRp1178
ag899
(g901
S'\x00\x00\x00\x00\x00\x00\xf8\xff'
tRp1179
ag899
(g901
S'wwwww\xf7N\xc0'
tRp1180
aI0
aI0
aI-59
ag668
aa(lp1181
g899
(g901
S'\x00\x00\x00\x00\x00\x00\xf8\xff'
tRp1182
ag899
(g901
S'\x00\x00\x00\x00\x00\x00\xf8\xff'
tRp1183
ag899
(g901
S'wwwww\xf7N\xc0'
tRp1184
aI0
aI0
aI-59
ag668
aa(lp1185
g899
(g901
S'\x00\x00\x00\x00\x00\x00\xf8\xff'
tRp1186
ag899
(g901
S'\x00\x00\x00\x00\x00\x00\xf8\xff'
tRp1187
ag899
(g901
S'\xbc\xbb\xbb\xbb\xbb\xfbN\xc0'
tRp1188
aI0
aI0
aI-60
ag668
aa(lp1189
g899
(g901
S'\x00\x00\x00\x00\x00\x00\xf8\xff'
tRp1190
ag899
(g901
S'\x00\x00\x00\x00\x00\x00\xf8\xff'
tRp1191
ag899
(g901
S'\x00\x00\x00\x00\x00\x00O\xc0'
tRp1192
aI0
aI0
aI-61
ag668
aa(lp1193
g899
(g901
S'\x00\x00\x00\x00\x00\x00\xf8\xff'
tRp1194
ag899
(g901
S'\x00\x00\x00\x00\x00\x00\xf8\xff'
tRp1195
ag899
(g901
S'\xbc\xbb\xbb\xbb\xbb\xfbN\xc0'
tRp1196
aI0
aI0
aI-60
ag668
aa(lp1197
g899
(g901
S'\x00\x00\x00\x00\x00\x00\xf8\xff'
tRp1198
ag899
(g901
S'\x00\x00\x00\x00\x00\x00\xf8\xff'
tRp1199
ag899
(g901
S'\xbc\xbb\xbb\xbb\xbb\xfbN\xc0'
tRp1200
aI0
aI0
aI-60
ag668
aa(lp1201
g899
(g901
S'\x00\x00\x00\x00\x00\x00\xf8\xff'
tRp1202
ag899
(g901
S'\x00\x00\x00\x00\x00\x00\xf8\xff'
tRp1203
ag899
(g901
S'\xbc\xbb\xbb\xbb\xbb\xfbN\xc0'
tRp1204
aI0
aI0
aI-60
ag668
aa(lp1205
g899
(g901
S'\x00\x00\x00\x00\x00\x00\xf8\xff'
tRp1206
ag899
(g901
S'\x00\x00\x00\x00\x00\x00\xf8\xff'
tRp1207
ag899
(g901
S'wwwww\xf7N\xc0'
tRp1208
aI0
aI0
aI-59
ag668
aa(lp1209
g899
(g901
S'\x00\x00\x00\x00\x00\x00\xf8\xff'
tRp1210
ag899
(g901
S'\x00\x00\x00\x00\x00\x00\xf8\xff'
tRp1211
ag899
(g901
S'\xbc\xbb\xbb\xbb\xbb\xfbN\xc0'
tRp1212
aI0
aI0
aI-60
ag668
aa(lp1213
g899
(g901
S'\x00\x00\x00\x00\x00\x00\xf8\xff'
tRp1214
ag899
(g901
S'\x00\x00\x00\x00\x00\x00\xf8\xff'
tRp1215
ag899
(g901
S'DDDDD\x04O\xc0'
tRp1216
aI0
aI0
aI-62
ag668
aa(lp1217
g899
(g901
S'\x00\x00\x00\x00\x00\x00\xf8\xff'
tRp1218
ag899
(g901
S'\x00\x00\x00\x00\x00\x00\xf8\xff'
tRp1219
ag899
(g901
S'DDDDD\x04O\xc0'
tRp1220
aI0
aI0
aI-62
ag668
aa(lp1221
g899
(g901
S'\x00\x00\x00\x00\x00\x00\xf8\xff'
tRp1222
ag899
(g901
S'\x00\x00\x00\x00\x00\x00\xf8\xff'
tRp1223
ag899
(g901
S'\x89\x88\x88\x88\x88\x08O\xc0'
tRp1224
aI0
aI0
aI-63
ag668
aa(lp1225
g899
(g901
S'\x00\x00\x00\x00\x00\x00\xf8\xff'
tRp1226
ag899
(g901
S'\x00\x00\x00\x00\x00\x00\xf8\xff'
tRp1227
ag899
(g901
S'DDDDD\x04O\xc0'
tRp1228
aI0
aI0
aI-62
ag668
aa(lp1229
g899
(g901
S'\x00\x00\x00\x00\x00\x00\xf8\xff'
tRp1230
ag899
(g901
S'\x00\x00\x00\x00\x00\x00\xf8\xff'
tRp1231
ag899
(g901
S'\x00\x00\x00\x00\x00\x00O\xc0'
tRp1232
aI0
aI0
aI-61
ag668
aa(lp1233
g899
(g901
S'\x00\x00\x00\x00\x00\x00\xf8\xff'
tRp1234
ag899
(g901
S'\x00\x00\x00\x00\x00\x00\xf8\xff'
tRp1235
ag899
(g901
S'\xbc\xbb\xbb\xbb\xbb\xfbN\xc0'
tRp1236
aI0
aI0
aI-60
ag668
aa(lp1237
g899
(g901
S'\x00\x00\x00\x00\x00\x00\xf8\xff'
tRp1238
ag899
(g901
S'\x00\x00\x00\x00\x00\x00\xf8\xff'
tRp1239
ag899
(g901
S'\x00\x00\x00\x00\x00\x00O\xc0'
tRp1240
aI0
aI0
aI-61
ag668
aa(lp1241
g899
(g901
S'\x00\x00\x00\x00\x00\x00\xf8\xff'
tRp1242
ag899
(g901
S'\x00\x00\x00\x00\x00\x00\xf8\xff'
tRp1243
ag899
(g901
S'\x00\x00\x00\x00\x00\x00O\xc0'
tRp1244
aI0
aI0
aI-61
ag668
aa(lp1245
g899
(g901
S'\x00\x00\x00\x00\x00\x00\xf8\xff'
tRp1246
ag899
(g901
S'\x00\x00\x00\x00\x00\x00\xf8\xff'
tRp1247
ag899
(g901
S'\x00\x00\x00\x00\x00\x00O\xc0'
tRp1248
aI0
aI0
aI-61
ag668
aa(lp1249
g899
(g901
S'\x00\x00\x00\x00\x00\x00\xf8\xff'
tRp1250
ag899
(g901
S'\x00\x00\x00\x00\x00\x00\xf8\xff'
tRp1251
ag899
(g901
S'DDDDD\x04O\xc0'
tRp1252
aI0
aI0
aI-62
ag668
aa(lp1253
g899
(g901
S'\x00\x00\x00\x00\x00\x00\xf8\xff'
tRp1254
ag899
(g901
S'\x00\x00\x00\x00\x00\x00\xf8\xff'
tRp1255
ag899
(g901
S'DDDDD\x04O\xc0'
tRp1256
aI0
aI0
aI-62
ag668
aa(lp1257
g899
(g901
S'\x00\x00\x00\x00\x00\x00\xf8\xff'
tRp1258
ag899
(g901
S'\x00\x00\x00\x00\x00\x00\xf8\xff'
tRp1259
ag899
(g901
S'UUUUU\x15O\xc0'
tRp1260
aI0
aI0
aI-66
ag668
aa(lp1261
g899
(g901
S'\x00\x00\x00\x00\x00\x00\xf8\xff'
tRp1262
ag899
(g901
S'\x00\x00\x00\x00\x00\x00\xf8\xff'
tRp1263
ag899
(g901
S'\xde\xdd\xdd\xdd\xdd\x1dO\xc0'
tRp1264
aI0
aI0
aI-68
ag668
aa(lp1265
g899
(g901
S'\x00\x00\x00\x00\x00\x00\xf8\xff'
tRp1266
ag899
(g901
S'\x00\x00\x00\x00\x00\x00\xf8\xff'
tRp1267
ag899
(g901
S'UUUUU\x15O\xc0'
tRp1268
aI0
aI0
aI-66
ag668
aa(lp1269
g899
(g901
S'\x00\x00\x00\x00\x00\x00\xf8\xff'
tRp1270
ag899
(g901
S'\x00\x00\x00\x00\x00\x00\xf8\xff'
tRp1271
ag899
(g901
S'\xde\xdd\xdd\xdd\xdd\x1dO\xc0'
tRp1272
aI0
aI0
aI-68
ag668
aa(lp1273
g899
(g901
S'\x00\x00\x00\x00\x00\x00\xf8\xff'
tRp1274
ag899
(g901
S'\x00\x00\x00\x00\x00\x00\xf8\xff'
tRp1275
ag899
(g901
S'\xde\xdd\xdd\xdd\xdd\x1dO\xc0'
tRp1276
aI0
aI0
aI-68
ag668
aa(lp1277
g899
(g901
S'\x00\x00\x00\x00\x00\x00\xf8\xff'
tRp1278
ag899
(g901
S'\x00\x00\x00\x00\x00\x00\xf8\xff'
tRp1279
ag899
(g901
S'\xcd\xcc\xcc\xcc\xcc\x0cO\xc0'
tRp1280
aI0
aI0
aI-64
ag668
aa(lp1281
g899
(g901
S'\x00\x00\x00\x00\x00\x00\xf8\xff'
tRp1282
ag899
(g901
S'\x00\x00\x00\x00\x00\x00\xf8\xff'
tRp1283
ag899
(g901
S'\x89\x88\x88\x88\x88\x08O\xc0'
tRp1284
aI0
aI0
aI-63
ag668
aa(lp1285
g899
(g901
S'\x00\x00\x00\x00\x00\x00\xf8\xff'
tRp1286
ag899
(g901
S'\x00\x00\x00\x00\x00\x00\xf8\xff'
tRp1287
ag899
(g901
S'\x00\x00\x00\x00\x00\x00O\xc0'
tRp1288
aI0
aI0
aI-61
ag668
aa(lp1289
g899
(g901
S'\x00\x00\x00\x00\x00\x00\xf8\xff'
tRp1290
ag899
(g901
S'\x00\x00\x00\x00\x00\x00\xf8\xff'
tRp1291
ag899
(g901
S'\xbc\xbb\xbb\xbb\xbb\xfbN\xc0'
tRp1292
aI0
aI0
aI-60
ag668
aa(lp1293
g899
(g901
S'\x00\x00\x00\x00\x00\x00\xf8\xff'
tRp1294
ag899
(g901
S'\x00\x00\x00\x00\x00\x00\xf8\xff'
tRp1295
ag899
(g901
S'wwwww\xf7N\xc0'
tRp1296
aI0
aI0
aI-59
ag668
aa(lp1297
g899
(g901
S'\x00\x00\x00\x00\x00\x00\xf8\xff'
tRp1298
ag899
(g901
S'\x00\x00\x00\x00\x00\x00\xf8\xff'
tRp1299
ag899
(g901
S'wwwww\xf7N\xc0'
tRp1300
aI0
aI0
aI-59
ag668
aa(lp1301
g899
(g901
S'\x00\x00\x00\x00\x00\x00\xf8\xff'
tRp1302
ag899
(g901
S'\x00\x00\x00\x00\x00\x00\xf8\xff'
tRp1303
ag899
(g901
S'\xbc\xbb\xbb\xbb\xbb\xfbN\xc0'
tRp1304
aI0
aI0
aI-60
ag668
aa(lp1305
g899
(g901
S'\x00\x00\x00\x00\x00\x00\xf8\xff'
tRp1306
ag899
(g901
S'\x00\x00\x00\x00\x00\x00\xf8\xff'
tRp1307
ag899
(g901
S'\x00\x00\x00\x00\x00\x00O\xc0'
tRp1308
aI0
aI0
aI-61
ag668
aa(lp1309
g899
(g901
S'\x00\x00\x00\x00\x00\x00\xf8\xff'
tRp1310
ag899
(g901
S'\x00\x00\x00\x00\x00\x00\xf8\xff'
tRp1311
ag899
(g901
S'\xbc\xbb\xbb\xbb\xbb\xfbN\xc0'
tRp1312
aI0
aI0
aI-60
ag668
aa(lp1313
g899
(g901
S'\x00\x00\x00\x00\x00\x00\xf8\xff'
tRp1314
ag899
(g901
S'\x00\x00\x00\x00\x00\x00\xf8\xff'
tRp1315
ag899
(g901
S'\xbc\xbb\xbb\xbb\xbb\xfbN\xc0'
tRp1316
aI0
aI0
aI-60
ag668
aa(lp1317
g899
(g901
S'\x00\x00\x00\x00\x00\x00\xf8\xff'
tRp1318
ag899
(g901
S'\x00\x00\x00\x00\x00\x00\xf8\xff'
tRp1319
ag899
(g901
S'\xbc\xbb\xbb\xbb\xbb\xfbN\xc0'
tRp1320
aI0
aI0
aI-60
ag668
aa(lp1321
g899
(g901
S'\x00\x00\x00\x00\x00\x00\xf8\xff'
tRp1322
ag899
(g901
S'\x00\x00\x00\x00\x00\x00\xf8\xff'
tRp1323
ag899
(g901
S'wwwww\xf7N\xc0'
tRp1324
aI0
aI0
aI-59
ag668
aa(lp1325
g899
(g901
S'\x00\x00\x00\x00\x00\x00\xf8\xff'
tRp1326
ag899
(g901
S'\x00\x00\x00\x00\x00\x00\xf8\xff'
tRp1327
ag899
(g901
S'\xbc\xbb\xbb\xbb\xbb\xfbN\xc0'
tRp1328
aI0
aI0
aI-60
ag668
aa(lp1329
g899
(g901
S'\x00\x00\x00\x00\x00\x00\xf8\xff'
tRp1330
ag899
(g901
S'\x00\x00\x00\x00\x00\x00\xf8\xff'
tRp1331
ag899
(g901
S'DDDDD\x04O\xc0'
tRp1332
aI0
aI0
aI-62
ag668
aa(lp1333
g899
(g901
S'\x00\x00\x00\x00\x00\x00\xf8\xff'
tRp1334
ag899
(g901
S'\x00\x00\x00\x00\x00\x00\xf8\xff'
tRp1335
ag899
(g901
S'DDDDD\x04O\xc0'
tRp1336
aI0
aI0
aI-62
ag668
aa(lp1337
g899
(g901
S'\x00\x00\x00\x00\x00\x00\xf8\xff'
tRp1338
ag899
(g901
S'\x00\x00\x00\x00\x00\x00\xf8\xff'
tRp1339
ag899
(g901
S'\x89\x88\x88\x88\x88\x08O\xc0'
tRp1340
aI0
aI0
aI-63
ag668
aa(lp1341
g899
(g901
S'\x00\x00\x00\x00\x00\x00\xf8\xff'
tRp1342
ag899
(g901
S'\x00\x00\x00\x00\x00\x00\xf8\xff'
tRp1343
ag899
(g901
S'DDDDD\x04O\xc0'
tRp1344
aI0
aI0
aI-62
ag668
aa(lp1345
g899
(g901
S'\x00\x00\x00\x00\x00\x00\xf8\xff'
tRp1346
ag899
(g901
S'\x00\x00\x00\x00\x00\x00\xf8\xff'
tRp1347
ag899
(g901
S'\x00\x00\x00\x00\x00\x00O\xc0'
tRp1348
aI0
aI0
aI-61
ag668
aa(lp1349
g899
(g901
S'\x00\x00\x00\x00\x00\x00\xf8\xff'
tRp1350
ag899
(g901
S'\x00\x00\x00\x00\x00\x00\xf8\xff'
tRp1351
ag899
(g901
S'\xbc\xbb\xbb\xbb\xbb\xfbN\xc0'
tRp1352
aI0
aI0
aI-60
ag668
aa(lp1353
g899
(g901
S'\x00\x00\x00\x00\x00\x00\xf8\xff'
tRp1354
ag899
(g901
S'\x00\x00\x00\x00\x00\x00\xf8\xff'
tRp1355
ag899
(g901
S'\x00\x00\x00\x00\x00\x00O\xc0'
tRp1356
aI0
aI0
aI-61
ag668
aa(lp1357
g899
(g901
S'\x00\x00\x00\x00\x00\x00\xf8\xff'
tRp1358
ag899
(g901
S'\x00\x00\x00\x00\x00\x00\xf8\xff'
tRp1359
ag899
(g901
S'\x00\x00\x00\x00\x00\x00O\xc0'
tRp1360
aI0
aI0
aI-61
ag668
aa(lp1361
g899
(g901
S'\x00\x00\x00\x00\x00\x00\xf8\xff'
tRp1362
ag899
(g901
S'\x00\x00\x00\x00\x00\x00\xf8\xff'
tRp1363
ag899
(g901
S'\x00\x00\x00\x00\x00\x00O\xc0'
tRp1364
aI0
aI0
aI-61
ag668
aa(lp1365
g899
(g901
S'\x00\x00\x00\x00\x00\x00\xf8\xff'
tRp1366
ag899
(g901
S'\x00\x00\x00\x00\x00\x00\xf8\xff'
tRp1367
ag899
(g901
S'DDDDD\x04O\xc0'
tRp1368
aI0
aI0
aI-62
ag668
aa(lp1369
g899
(g901
S'\x00\x00\x00\x00\x00\x00\xf8\xff'
tRp1370
ag899
(g901
S'\x00\x00\x00\x00\x00\x00\xf8\xff'
tRp1371
ag899
(g901
S'DDDDD\x04O\xc0'
tRp1372
aI0
aI0
aI-62
ag668
aa(lp1373
g899
(g901
S'\x00\x00\x00\x00\x00\x00\xf8\xff'
tRp1374
ag899
(g901
S'\x00\x00\x00\x00\x00\x00\xf8\xff'
tRp1375
ag899
(g901
S'UUUUU\x15O\xc0'
tRp1376
aI0
aI0
aI-66
ag668
aa(lp1377
g899
(g901
S'\x00\x00\x00\x00\x00\x00\xf8\xff'
tRp1378
ag899
(g901
S'\x00\x00\x00\x00\x00\x00\xf8\xff'
tRp1379
ag899
(g901
S'\xde\xdd\xdd\xdd\xdd\x1dO\xc0'
tRp1380
aI0
aI0
aI-68
ag668
aa(lp1381
g899
(g901
S'\x00\x00\x00\x00\x00\x00\xf8\xff'
tRp1382
ag899
(g901
S'\x00\x00\x00\x00\x00\x00\xf8\xff'
tRp1383
ag899
(g901
S'UUUUU\x15O\xc0'
tRp1384
aI0
aI0
aI-66
ag668
aa(lp1385
g899
(g901
S'\x00\x00\x00\x00\x00\x00\xf8\xff'
tRp1386
ag899
(g901
S'\x00\x00\x00\x00\x00\x00\xf8\xff'
tRp1387
ag899
(g901
S'\xde\xdd\xdd\xdd\xdd\x1dO\xc0'
tRp1388
aI0
aI0
aI-68
ag668
aa(lp1389
g899
(g901
S'\x00\x00\x00\x00\x00\x00\xf8\xff'
tRp1390
ag899
(g901
S'\x00\x00\x00\x00\x00\x00\xf8\xff'
tRp1391
ag899
(g901
S'\xde\xdd\xdd\xdd\xdd\x1dO\xc0'
tRp1392
aI0
aI0
aI-68
ag668
aa(lp1393
g899
(g901
S'\x00\x00\x00\x00\x00\x00\xf8\xff'
tRp1394
ag899
(g901
S'\x00\x00\x00\x00\x00\x00\xf8\xff'
tRp1395
ag899
(g901
S'\xcd\xcc\xcc\xcc\xcc\x0cO\xc0'
tRp1396
aI0
aI0
aI-64
ag668
aa(lp1397
g899
(g901
S'\x00\x00\x00\x00\x00\x00\xf8\xff'
tRp1398
ag899
(g901
S'\x00\x00\x00\x00\x00\x00\xf8\xff'
tRp1399
ag899
(g901
S'\x89\x88\x88\x88\x88\x08O\xc0'
tRp1400
aI0
aI0
aI-63
ag668
aa(lp1401
g899
(g901
S'\x00\x00\x00\x00\x00\x00\xf8\xff'
tRp1402
ag899
(g901
S'\x00\x00\x00\x00\x00\x00\xf8\xff'
tRp1403
ag899
(g901
S'\x00\x00\x00\x00\x00\x00O\xc0'
tRp1404
aI0
aI0
aI-61
ag668
aa(lp1405
g899
(g901
S'\x00\x00\x00\x00\x00\x00\xf8\xff'
tRp1406
ag899
(g901
S'\x00\x00\x00\x00\x00\x00\xf8\xff'
tRp1407
ag899
(g901
S'\xbc\xbb\xbb\xbb\xbb\xfbN\xc0'
tRp1408
aI0
aI0
aI-60
ag668
aa(lp1409
g899
(g901
S'\x00\x00\x00\x00\x00\x00\xf8\xff'
tRp1410
ag899
(g901
S'\x00\x00\x00\x00\x00\x00\xf8\xff'
tRp1411
ag899
(g901
S'wwwww\xf7N\xc0'
tRp1412
aI0
aI0
aI-59
ag668
aa(lp1413
g899
(g901
S'\x00\x00\x00\x00\x00\x00\xf8\xff'
tRp1414
ag899
(g901
S'\x00\x00\x00\x00\x00\x00\xf8\xff'
tRp1415
ag899
(g901
S'wwwww\xf7N\xc0'
tRp1416
aI0
aI0
aI-59
ag668
aa(lp1417
g899
(g901
S'\x00\x00\x00\x00\x00\x00\xf8\xff'
tRp1418
ag899
(g901
S'\x00\x00\x00\x00\x00\x00\xf8\xff'
tRp1419
ag899
(g901
S'\xbc\xbb\xbb\xbb\xbb\xfbN\xc0'
tRp1420
aI0
aI0
aI-60
ag668
aa(lp1421
g899
(g901
S'\x00\x00\x00\x00\x00\x00\xf8\xff'
tRp1422
ag899
(g901
S'\x00\x00\x00\x00\x00\x00\xf8\xff'
tRp1423
ag899
(g901
S'\x00\x00\x00\x00\x00\x00O\xc0'
tRp1424
aI0
aI0
aI-61
ag668
aa(lp1425
g899
(g901
S'\x00\x00\x00\x00\x00\x00\xf8\xff'
tRp1426
ag899
(g901
S'\x00\x00\x00\x00\x00\x00\xf8\xff'
tRp1427
ag899
(g901
S'\xbc\xbb\xbb\xbb\xbb\xfbN\xc0'
tRp1428
aI0
aI0
aI-60
ag668
aa(lp1429
g899
(g901
S'\x00\x00\x00\x00\x00\x00\xf8\xff'
tRp1430
ag899
(g901
S'\x00\x00\x00\x00\x00\x00\xf8\xff'
tRp1431
ag899
(g901
S'\xbc\xbb\xbb\xbb\xbb\xfbN\xc0'
tRp1432
aI0
aI0
aI-60
ag668
aa(lp1433
g899
(g901
S'\x00\x00\x00\x00\x00\x00\xf8\xff'
tRp1434
ag899
(g901
S'\x00\x00\x00\x00\x00\x00\xf8\xff'
tRp1435
ag899
(g901
S'\xbc\xbb\xbb\xbb\xbb\xfbN\xc0'
tRp1436
aI0
aI0
aI-60
ag668
aa(lp1437
g899
(g901
S'\x00\x00\x00\x00\x00\x00\xf8\xff'
tRp1438
ag899
(g901
S'\x00\x00\x00\x00\x00\x00\xf8\xff'
tRp1439
ag899
(g901
S'wwwww\xf7N\xc0'
tRp1440
aI0
aI0
aI-59
ag668
aa(lp1441
g899
(g901
S'\x00\x00\x00\x00\x00\x00\xf8\xff'
tRp1442
ag899
(g901
S'\x00\x00\x00\x00\x00\x00\xf8\xff'
tRp1443
ag899
(g901
S'\xbc\xbb\xbb\xbb\xbb\xfbN\xc0'
tRp1444
aI0
aI0
aI-60
ag668
aa(lp1445
g899
(g901
S'\x00\x00\x00\x00\x00\x00\xf8\xff'
tRp1446
ag899
(g901
S'\x00\x00\x00\x00\x00\x00\xf8\xff'
tRp1447
ag899
(g901
S'DDDDD\x04O\xc0'
tRp1448
aI0
aI0
aI-62
ag668
aa(lp1449
g899
(g901
S'\x00\x00\x00\x00\x00\x00\xf8\xff'
tRp1450
ag899
(g901
S'\x00\x00\x00\x00\x00\x00\xf8\xff'
tRp1451
ag899
(g901
S'DDDDD\x04O\xc0'
tRp1452
aI0
aI0
aI-62
ag668
aa(lp1453
g899
(g901
S'\x00\x00\x00\x00\x00\x00\xf8\xff'
tRp1454
ag899
(g901
S'\x00\x00\x00\x00\x00\x00\xf8\xff'
tRp1455
ag899
(g901
S'\x89\x88\x88\x88\x88\x08O\xc0'
tRp1456
aI0
aI0
aI-63
ag668
aa(lp1457
g899
(g901
S'\x00\x00\x00\x00\x00\x00\xf8\xff'
tRp1458
ag899
(g901
S'\x00\x00\x00\x00\x00\x00\xf8\xff'
tRp1459
ag899
(g901
S'DDDDD\x04O\xc0'
tRp1460
aI0
aI0
aI-62
ag668
aa(lp1461
g899
(g901
S'\x00\x00\x00\x00\x00\x00\xf8\xff'
tRp1462
ag899
(g901
S'\x00\x00\x00\x00\x00\x00\xf8\xff'
tRp1463
ag899
(g901
S'\x00\x00\x00\x00\x00\x00O\xc0'
tRp1464
aI0
aI0
aI-61
ag668
aa(lp1465
g899
(g901
S'\x00\x00\x00\x00\x00\x00\xf8\xff'
tRp1466
ag899
(g901
S'\x00\x00\x00\x00\x00\x00\xf8\xff'
tRp1467
ag899
(g901
S'\xbc\xbb\xbb\xbb\xbb\xfbN\xc0'
tRp1468
aI0
aI0
aI-60
ag668
aa(lp1469
g899
(g901
S'\x00\x00\x00\x00\x00\x00\xf8\xff'
tRp1470
ag899
(g901
S'\x00\x00\x00\x00\x00\x00\xf8\xff'
tRp1471
ag899
(g901
S'\x00\x00\x00\x00\x00\x00O\xc0'
tRp1472
aI0
aI0
aI-61
ag668
aa(lp1473
g899
(g901
S'\x00\x00\x00\x00\x00\x00\xf8\xff'
tRp1474
ag899
(g901
S'\x00\x00\x00\x00\x00\x00\xf8\xff'
tRp1475
ag899
(g901
S'\x00\x00\x00\x00\x00\x00O\xc0'
tRp1476
aI0
aI0
aI-61
ag668
aa(lp1477
g899
(g901
S'\x00\x00\x00\x00\x00\x00\xf8\xff'
tRp1478
ag899
(g901
S'\x00\x00\x00\x00\x00\x00\xf8\xff'
tRp1479
ag899
(g901
S'\x00\x00\x00\x00\x00\x00O\xc0'
tRp1480
aI0
aI0
aI-61
ag668
aa(lp1481
g899
(g901
S'\x00\x00\x00\x00\x00\x00\xf8\xff'
tRp1482
ag899
(g901
S'\x00\x00\x00\x00\x00\x00\xf8\xff'
tRp1483
ag899
(g901
S'DDDDD\x04O\xc0'
tRp1484
aI0
aI0
aI-62
ag668
aa(lp1485
g899
(g901
S'\x00\x00\x00\x00\x00\x00\xf8\xff'
tRp1486
ag899
(g901
S'\x00\x00\x00\x00\x00\x00\xf8\xff'
tRp1487
ag899
(g901
S'DDDDD\x04O\xc0'
tRp1488
aI0
aI0
aI-62
ag668
aa(lp1489
g899
(g901
S'\x00\x00\x00\x00\x00\x00\xf8\xff'
tRp1490
ag899
(g901
S'\x00\x00\x00\x00\x00\x00\xf8\xff'
tRp1491
ag899
(g901
S'UUUUU\x15O\xc0'
tRp1492
aI0
aI0
aI-66
ag668
aa(lp1493
g899
(g901
S'\x00\x00\x00\x00\x00\x00\xf8\xff'
tRp1494
ag899
(g901
S'\x00\x00\x00\x00\x00\x00\xf8\xff'
tRp1495
ag899
(g901
S'\xde\xdd\xdd\xdd\xdd\x1dO\xc0'
tRp1496
aI0
aI0
aI-68
ag668
aa(lp1497
g899
(g901
S'\x00\x00\x00\x00\x00\x00\xf8\xff'
tRp1498
ag899
(g901
S'\x00\x00\x00\x00\x00\x00\xf8\xff'
tRp1499
ag899
(g901
S'UUUUU\x15O\xc0'
tRp1500
aI0
aI0
aI-66
ag668
aa(lp1501
g899
(g901
S'\x00\x00\x00\x00\x00\x00\xf8\xff'
tRp1502
ag899
(g901
S'\x00\x00\x00\x00\x00\x00\xf8\xff'
tRp1503
ag899
(g901
S'\xde\xdd\xdd\xdd\xdd\x1dO\xc0'
tRp1504
aI0
aI0
aI-68
ag668
aa(lp1505
g899
(g901
S'\x00\x00\x00\x00\x00\x00\xf8\xff'
tRp1506
ag899
(g901
S'\x00\x00\x00\x00\x00\x00\xf8\xff'
tRp1507
ag899
(g901
S'\xde\xdd\xdd\xdd\xdd\x1dO\xc0'
tRp1508
aI0
aI0
aI-68
ag668
aa(lp1509
g899
(g901
S'\x00\x00\x00\x00\x00\x00\xf8\xff'
tRp1510
ag899
(g901
S'\x00\x00\x00\x00\x00\x00\xf8\xff'
tRp1511
ag899
(g901
S'\xcd\xcc\xcc\xcc\xcc\x0cO\xc0'
tRp1512
aI0
aI0
aI-64
ag668
aa(lp1513
g899
(g901
S'\x00\x00\x00\x00\x00\x00\xf8\xff'
tRp1514
ag899
(g901
S'\x00\x00\x00\x00\x00\x00\xf8\xff'
tRp1515
ag899
(g901
S'\x89\x88\x88\x88\x88\x08O\xc0'
tRp1516
aI0
aI0
aI-63
ag668
aa(lp1517
g899
(g901
S'\x00\x00\x00\x00\x00\x00\xf8\xff'
tRp1518
ag899
(g901
S'\x00\x00\x00\x00\x00\x00\xf8\xff'
tRp1519
ag899
(g901
S'\x00\x00\x00\x00\x00\x00O\xc0'
tRp1520
aI0
aI0
aI-61
ag668
aa(lp1521
g899
(g901
S'\x00\x00\x00\x00\x00\x00\xf8\xff'
tRp1522
ag899
(g901
S'\x00\x00\x00\x00\x00\x00\xf8\xff'
tRp1523
ag899
(g901
S'\xbc\xbb\xbb\xbb\xbb\xfbN\xc0'
tRp1524
aI0
aI0
aI-60
ag668
aa(lp1525
g899
(g901
S'\x00\x00\x00\x00\x00\x00\xf8\xff'
tRp1526
ag899
(g901
S'\x00\x00\x00\x00\x00\x00\xf8\xff'
tRp1527
ag899
(g901
S'wwwww\xf7N\xc0'
tRp1528
aI0
aI0
aI-59
ag668
aa(lp1529
g899
(g901
S'\x00\x00\x00\x00\x00\x00\xf8\xff'
tRp1530
ag899
(g901
S'\x00\x00\x00\x00\x00\x00\xf8\xff'
tRp1531
ag899
(g901
S'wwwww\xf7N\xc0'
tRp1532
aI0
aI0
aI-59
ag668
aa(lp1533
g899
(g901
S'\x00\x00\x00\x00\x00\x00\xf8\xff'
tRp1534
ag899
(g901
S'\x00\x00\x00\x00\x00\x00\xf8\xff'
tRp1535
ag899
(g901
S'\xbc\xbb\xbb\xbb\xbb\xfbN\xc0'
tRp1536
aI0
aI0
aI-60
ag668
aa(lp1537
g899
(g901
S'\x00\x00\x00\x00\x00\x00\xf8\xff'
tRp1538
ag899
(g901
S'\x00\x00\x00\x00\x00\x00\xf8\xff'
tRp1539
ag899
(g901
S'\x00\x00\x00\x00\x00\x00O\xc0'
tRp1540
aI0
aI0
aI-61
ag668
aa(lp1541
g899
(g901
S'\x00\x00\x00\x00\x00\x00\xf8\xff'
tRp1542
ag899
(g901
S'\x00\x00\x00\x00\x00\x00\xf8\xff'
tRp1543
ag899
(g901
S'\xbc\xbb\xbb\xbb\xbb\xfbN\xc0'
tRp1544
aI0
aI0
aI-60
ag668
aa(lp1545
g899
(g901
S'\x00\x00\x00\x00\x00\x00\xf8\xff'
tRp1546
ag899
(g901
S'\x00\x00\x00\x00\x00\x00\xf8\xff'
tRp1547
ag899
(g901
S'\xbc\xbb\xbb\xbb\xbb\xfbN\xc0'
tRp1548
aI0
aI0
aI-60
ag668
aa(lp1549
g899
(g901
S'\x00\x00\x00\x00\x00\x00\xf8\xff'
tRp1550
ag899
(g901
S'\x00\x00\x00\x00\x00\x00\xf8\xff'
tRp1551
ag899
(g901
S'\xbc\xbb\xbb\xbb\xbb\xfbN\xc0'
tRp1552
aI0
aI0
aI-60
ag668
aa(lp1553
g899
(g901
S'\x00\x00\x00\x00\x00\x00\xf8\xff'
tRp1554
ag899
(g901
S'\x00\x00\x00\x00\x00\x00\xf8\xff'
tRp1555
ag899
(g901
S'wwwww\xf7N\xc0'
tRp1556
aI0
aI0
aI-59
ag668
aa(lp1557
g899
(g901
S'\x00\x00\x00\x00\x00\x00\xf8\xff'
tRp1558
ag899
(g901
S'\x00\x00\x00\x00\x00\x00\xf8\xff'
tRp1559
ag899
(g901
S'\xbc\xbb\xbb\xbb\xbb\xfbN\xc0'
tRp1560
aI0
aI0
aI-60
ag668
aa(lp1561
g899
(g901
S'\x00\x00\x00\x00\x00\x00\xf8\xff'
tRp1562
ag899
(g901
S'\x00\x00\x00\x00\x00\x00\xf8\xff'
tRp1563
ag899
(g901
S'DDDDD\x04O\xc0'
tRp1564
aI0
aI0
aI-62
ag668
aa(lp1565
g899
(g901
S'\x00\x00\x00\x00\x00\x00\xf8\xff'
tRp1566
ag899
(g901
S'\x00\x00\x00\x00\x00\x00\xf8\xff'
tRp1567
ag899
(g901
S'DDDDD\x04O\xc0'
tRp1568
aI0
aI0
aI-62
ag668
aa(lp1569
g899
(g901
S'\x00\x00\x00\x00\x00\x00\xf8\xff'
tRp1570
ag899
(g901
S'\x00\x00\x00\x00\x00\x00\xf8\xff'
tRp1571
ag899
(g901
S'\x89\x88\x88\x88\x88\x08O\xc0'
tRp1572
aI0
aI0
aI-63
ag668
aa(lp1573
g899
(g901
S'\x00\x00\x00\x00\x00\x00\xf8\xff'
tRp1574
ag899
(g901
S'\x00\x00\x00\x00\x00\x00\xf8\xff'
tRp1575
ag899
(g901
S'DDDDD\x04O\xc0'
tRp1576
aI0
aI0
aI-62
ag668
aa(lp1577
g899
(g901
S'\x00\x00\x00\x00\x00\x00\xf8\xff'
tRp1578
ag899
(g901
S'\x00\x00\x00\x00\x00\x00\xf8\xff'
tRp1579
ag899
(g901
S'\x00\x00\x00\x00\x00\x00O\xc0'
tRp1580
aI0
aI0
aI-61
ag668
aa(lp1581
g899
(g901
S'\x00\x00\x00\x00\x00\x00\xf8\xff'
tRp1582
ag899
(g901
S'\x00\x00\x00\x00\x00\x00\xf8\xff'
tRp1583
ag899
(g901
S'\xbc\xbb\xbb\xbb\xbb\xfbN\xc0'
tRp1584
aI0
aI0
aI-60
ag668
aa(lp1585
g899
(g901
S'\x00\x00\x00\x00\x00\x00\xf8\xff'
tRp1586
ag899
(g901
S'\x00\x00\x00\x00\x00\x00\xf8\xff'
tRp1587
ag899
(g901
S'\x00\x00\x00\x00\x00\x00O\xc0'
tRp1588
aI0
aI0
aI-61
ag668
aa(lp1589
g899
(g901
S'\x00\x00\x00\x00\x00\x00\xf8\xff'
tRp1590
ag899
(g901
S'\x00\x00\x00\x00\x00\x00\xf8\xff'
tRp1591
ag899
(g901
S'\x00\x00\x00\x00\x00\x00O\xc0'
tRp1592
aI0
aI0
aI-61
ag668
aa(lp1593
g899
(g901
S'\x00\x00\x00\x00\x00\x00\xf8\xff'
tRp1594
ag899
(g901
S'\x00\x00\x00\x00\x00\x00\xf8\xff'
tRp1595
ag899
(g901
S'\x00\x00\x00\x00\x00\x00O\xc0'
tRp1596
aI0
aI0
aI-61
ag668
aa(lp1597
g899
(g901
S'\x00\x00\x00\x00\x00\x00\xf8\xff'
tRp1598
ag899
(g901
S'\x00\x00\x00\x00\x00\x00\xf8\xff'
tRp1599
ag899
(g901
S'DDDDD\x04O\xc0'
tRp1600
aI0
aI0
aI-62
ag668
aa(lp1601
g899
(g901
S'\x00\x00\x00\x00\x00\x00\xf8\xff'
tRp1602
ag899
(g901
S'\x00\x00\x00\x00\x00\x00\xf8\xff'
tRp1603
ag899
(g901
S'DDDDD\x04O\xc0'
tRp1604
aI0
aI0
aI-62
ag668
aa(lp1605
S'Raum1'
p1606
aS'Raum2'
p1607
aS'Flur'
p1608
a(dp1609
S'rssi2'
p1610
I4
sS'rssi3'
p1611
I5
sS'rssi1'
p1612
I3
sS'mean1'
p1613
I0
sS'mean2'
p1614
I1
sS'mean3'
p1615
I2
sS'clss'
p1616
I6
st.